
combineuart.elf:     file format elf32-littleriscv


Disassembly of section .text:

10000000 <_ftext>:
10000000:	0b00006f          	j	100000b0 <crt_init>
10000004:	00000013          	nop
10000008:	00000013          	nop
1000000c:	00000013          	nop
10000010:	00000013          	nop
10000014:	00000013          	nop
10000018:	00000013          	nop
1000001c:	00000013          	nop

10000020 <trap_entry>:
10000020:	fe112e23          	sw	ra,-4(sp)
10000024:	fe512c23          	sw	t0,-8(sp)
10000028:	fe612a23          	sw	t1,-12(sp)
1000002c:	fe712823          	sw	t2,-16(sp)
10000030:	fea12623          	sw	a0,-20(sp)
10000034:	feb12423          	sw	a1,-24(sp)
10000038:	fec12223          	sw	a2,-28(sp)
1000003c:	fed12023          	sw	a3,-32(sp)
10000040:	fce12e23          	sw	a4,-36(sp)
10000044:	fcf12c23          	sw	a5,-40(sp)
10000048:	fd012a23          	sw	a6,-44(sp)
1000004c:	fd112823          	sw	a7,-48(sp)
10000050:	fdc12623          	sw	t3,-52(sp)
10000054:	fdd12423          	sw	t4,-56(sp)
10000058:	fde12223          	sw	t5,-60(sp)
1000005c:	fdf12023          	sw	t6,-64(sp)
10000060:	fc010113          	addi	sp,sp,-64
10000064:	1d4000ef          	jal	ra,10000238 <isr>
10000068:	03c12083          	lw	ra,60(sp)
1000006c:	03812283          	lw	t0,56(sp)
10000070:	03412303          	lw	t1,52(sp)
10000074:	03012383          	lw	t2,48(sp)
10000078:	02c12503          	lw	a0,44(sp)
1000007c:	02812583          	lw	a1,40(sp)
10000080:	02412603          	lw	a2,36(sp)
10000084:	02012683          	lw	a3,32(sp)
10000088:	01c12703          	lw	a4,28(sp)
1000008c:	01812783          	lw	a5,24(sp)
10000090:	01412803          	lw	a6,20(sp)
10000094:	01012883          	lw	a7,16(sp)
10000098:	00c12e03          	lw	t3,12(sp)
1000009c:	00812e83          	lw	t4,8(sp)
100000a0:	00412f03          	lw	t5,4(sp)
100000a4:	00012f83          	lw	t6,0(sp)
100000a8:	04010113          	addi	sp,sp,64
100000ac:	30200073          	mret

100000b0 <crt_init>:
100000b0:	60000113          	li	sp,1536
100000b4:	00000517          	auipc	a0,0x0
100000b8:	f6c50513          	addi	a0,a0,-148 # 10000020 <trap_entry>
100000bc:	30551073          	csrw	mtvec,a0

100000c0 <sram_init>:
100000c0:	28000517          	auipc	a0,0x28000
100000c4:	f4050513          	addi	a0,a0,-192 # 38000000 <__mulsi3>
100000c8:	28000597          	auipc	a1,0x28000
100000cc:	47458593          	addi	a1,a1,1140 # 3800053c <_esram>
100000d0:	00001617          	auipc	a2,0x1
100000d4:	37860613          	addi	a2,a2,888 # 10001448 <_esram_rom>

100000d8 <sram_loop>:
100000d8:	00b50c63          	beq	a0,a1,100000f0 <data_init>
100000dc:	00062683          	lw	a3,0(a2)
100000e0:	00d52023          	sw	a3,0(a0)
100000e4:	00450513          	addi	a0,a0,4
100000e8:	00460613          	addi	a2,a2,4
100000ec:	fedff06f          	j	100000d8 <sram_loop>

100000f0 <data_init>:
100000f0:	00000513          	li	a0,0
100000f4:	10800593          	li	a1,264
100000f8:	00001617          	auipc	a2,0x1
100000fc:	24860613          	addi	a2,a2,584 # 10001340 <_erodata>

10000100 <data_loop>:
10000100:	00b50c63          	beq	a0,a1,10000118 <bss_init>
10000104:	00062683          	lw	a3,0(a2)
10000108:	00d52023          	sw	a3,0(a0)
1000010c:	00450513          	addi	a0,a0,4
10000110:	00460613          	addi	a2,a2,4
10000114:	fedff06f          	j	10000100 <data_loop>

10000118 <bss_init>:
10000118:	10800513          	li	a0,264
1000011c:	1a000593          	li	a1,416

10000120 <bss_loop>:
10000120:	00b50863          	beq	a0,a1,10000130 <bss_done>
10000124:	00052023          	sw	zero,0(a0)
10000128:	00450513          	addi	a0,a0,4
1000012c:	ff5ff06f          	j	10000120 <bss_loop>

10000130 <bss_done>:
10000130:	00001537          	lui	a0,0x1
10000134:	88050513          	addi	a0,a0,-1920 # 880 <_fstack+0x280>
10000138:	30451073          	csrw	mie,a0
1000013c:	30046573          	csrrsi	a0,mstatus,8
10000140:	348000ef          	jal	ra,10000488 <main>

10000144 <infinit_loop>:
10000144:	0000006f          	j	10000144 <infinit_loop>

10000148 <flush_cpu_icache>:
10000148:	ff010113          	addi	sp,sp,-16
1000014c:	00812623          	sw	s0,12(sp)
10000150:	01010413          	addi	s0,sp,16
10000154:	00000013          	nop
10000158:	00c12403          	lw	s0,12(sp)
1000015c:	01010113          	addi	sp,sp,16
10000160:	00008067          	ret

10000164 <flush_cpu_dcache>:
10000164:	ff010113          	addi	sp,sp,-16
10000168:	00812623          	sw	s0,12(sp)
1000016c:	01010413          	addi	s0,sp,16
10000170:	00000013          	nop
10000174:	00c12403          	lw	s0,12(sp)
10000178:	01010113          	addi	sp,sp,16
1000017c:	00008067          	ret

10000180 <csr_write_simple>:
10000180:	fe010113          	addi	sp,sp,-32
10000184:	00812e23          	sw	s0,28(sp)
10000188:	02010413          	addi	s0,sp,32
1000018c:	fea42623          	sw	a0,-20(s0)
10000190:	feb42423          	sw	a1,-24(s0)
10000194:	fe842783          	lw	a5,-24(s0)
10000198:	fec42703          	lw	a4,-20(s0)
1000019c:	00e7a023          	sw	a4,0(a5)
100001a0:	00000013          	nop
100001a4:	01c12403          	lw	s0,28(sp)
100001a8:	02010113          	addi	sp,sp,32
100001ac:	00008067          	ret

100001b0 <user_irq_0_ev_pending_write>:
100001b0:	fe010113          	addi	sp,sp,-32
100001b4:	00112e23          	sw	ra,28(sp)
100001b8:	00812c23          	sw	s0,24(sp)
100001bc:	02010413          	addi	s0,sp,32
100001c0:	fea42623          	sw	a0,-20(s0)
100001c4:	f00077b7          	lui	a5,0xf0007
100001c8:	81078593          	addi	a1,a5,-2032 # f0006810 <_esram+0xb80062d4>
100001cc:	fec42503          	lw	a0,-20(s0)
100001d0:	fb1ff0ef          	jal	ra,10000180 <csr_write_simple>
100001d4:	00000013          	nop
100001d8:	01c12083          	lw	ra,28(sp)
100001dc:	01812403          	lw	s0,24(sp)
100001e0:	02010113          	addi	sp,sp,32
100001e4:	00008067          	ret

100001e8 <irq_getmask>:
100001e8:	fe010113          	addi	sp,sp,-32
100001ec:	00812e23          	sw	s0,28(sp)
100001f0:	02010413          	addi	s0,sp,32
100001f4:	bc0027f3          	csrr	a5,0xbc0
100001f8:	fef42623          	sw	a5,-20(s0)
100001fc:	fec42783          	lw	a5,-20(s0)
10000200:	00078513          	mv	a0,a5
10000204:	01c12403          	lw	s0,28(sp)
10000208:	02010113          	addi	sp,sp,32
1000020c:	00008067          	ret

10000210 <irq_pending>:
10000210:	fe010113          	addi	sp,sp,-32
10000214:	00812e23          	sw	s0,28(sp)
10000218:	02010413          	addi	s0,sp,32
1000021c:	fc0027f3          	csrr	a5,0xfc0
10000220:	fef42623          	sw	a5,-20(s0)
10000224:	fec42783          	lw	a5,-20(s0)
10000228:	00078513          	mv	a0,a5
1000022c:	01c12403          	lw	s0,28(sp)
10000230:	02010113          	addi	sp,sp,32
10000234:	00008067          	ret

10000238 <isr>:
10000238:	fe010113          	addi	sp,sp,-32
1000023c:	00112e23          	sw	ra,28(sp)
10000240:	00812c23          	sw	s0,24(sp)
10000244:	00912a23          	sw	s1,20(sp)
10000248:	02010413          	addi	s0,sp,32
1000024c:	fc5ff0ef          	jal	ra,10000210 <irq_pending>
10000250:	00050493          	mv	s1,a0
10000254:	f95ff0ef          	jal	ra,100001e8 <irq_getmask>
10000258:	00050793          	mv	a5,a0
1000025c:	00f4f7b3          	and	a5,s1,a5
10000260:	fef42623          	sw	a5,-20(s0)
10000264:	fec42783          	lw	a5,-20(s0)
10000268:	0047f793          	andi	a5,a5,4
1000026c:	02078063          	beqz	a5,1000028c <isr+0x54>
10000270:	00100513          	li	a0,1
10000274:	f3dff0ef          	jal	ra,100001b0 <user_irq_0_ev_pending_write>
10000278:	054010ef          	jal	ra,100012cc <uart_read>
1000027c:	fea42423          	sw	a0,-24(s0)
10000280:	fe842503          	lw	a0,-24(s0)
10000284:	6d1000ef          	jal	ra,10001154 <uart_write>
10000288:	00000013          	nop
1000028c:	00000013          	nop
10000290:	01c12083          	lw	ra,28(sp)
10000294:	01812403          	lw	s0,24(sp)
10000298:	01412483          	lw	s1,20(sp)
1000029c:	02010113          	addi	sp,sp,32
100002a0:	00008067          	ret

100002a4 <flush_cpu_icache>:
100002a4:	ff010113          	addi	sp,sp,-16
100002a8:	00812623          	sw	s0,12(sp)
100002ac:	01010413          	addi	s0,sp,16
100002b0:	00000013          	nop
100002b4:	00c12403          	lw	s0,12(sp)
100002b8:	01010113          	addi	sp,sp,16
100002bc:	00008067          	ret

100002c0 <flush_cpu_dcache>:
100002c0:	ff010113          	addi	sp,sp,-16
100002c4:	00812623          	sw	s0,12(sp)
100002c8:	01010413          	addi	s0,sp,16
100002cc:	00000013          	nop
100002d0:	00c12403          	lw	s0,12(sp)
100002d4:	01010113          	addi	sp,sp,16
100002d8:	00008067          	ret

100002dc <flush_cpu_icache>:
100002dc:	ff010113          	addi	sp,sp,-16
100002e0:	00812623          	sw	s0,12(sp)
100002e4:	01010413          	addi	s0,sp,16
100002e8:	00000013          	nop
100002ec:	00c12403          	lw	s0,12(sp)
100002f0:	01010113          	addi	sp,sp,16
100002f4:	00008067          	ret

100002f8 <flush_cpu_dcache>:
100002f8:	ff010113          	addi	sp,sp,-16
100002fc:	00812623          	sw	s0,12(sp)
10000300:	01010413          	addi	s0,sp,16
10000304:	00000013          	nop
10000308:	00c12403          	lw	s0,12(sp)
1000030c:	01010113          	addi	sp,sp,16
10000310:	00008067          	ret

10000314 <csr_write_simple>:
10000314:	fe010113          	addi	sp,sp,-32
10000318:	00812e23          	sw	s0,28(sp)
1000031c:	02010413          	addi	s0,sp,32
10000320:	fea42623          	sw	a0,-20(s0)
10000324:	feb42423          	sw	a1,-24(s0)
10000328:	fe842783          	lw	a5,-24(s0)
1000032c:	fec42703          	lw	a4,-20(s0)
10000330:	00e7a023          	sw	a4,0(a5)
10000334:	00000013          	nop
10000338:	01c12403          	lw	s0,28(sp)
1000033c:	02010113          	addi	sp,sp,32
10000340:	00008067          	ret

10000344 <user_irq_0_ev_enable_write>:
10000344:	fe010113          	addi	sp,sp,-32
10000348:	00112e23          	sw	ra,28(sp)
1000034c:	00812c23          	sw	s0,24(sp)
10000350:	02010413          	addi	s0,sp,32
10000354:	fea42623          	sw	a0,-20(s0)
10000358:	f00077b7          	lui	a5,0xf0007
1000035c:	81478593          	addi	a1,a5,-2028 # f0006814 <_esram+0xb80062d8>
10000360:	fec42503          	lw	a0,-20(s0)
10000364:	fb1ff0ef          	jal	ra,10000314 <csr_write_simple>
10000368:	00000013          	nop
1000036c:	01c12083          	lw	ra,28(sp)
10000370:	01812403          	lw	s0,24(sp)
10000374:	02010113          	addi	sp,sp,32
10000378:	00008067          	ret

1000037c <putchar>:
1000037c:	fe010113          	addi	sp,sp,-32
10000380:	00112e23          	sw	ra,28(sp)
10000384:	00812c23          	sw	s0,24(sp)
10000388:	02010413          	addi	s0,sp,32
1000038c:	00050793          	mv	a5,a0
10000390:	fef407a3          	sb	a5,-17(s0)
10000394:	fef44703          	lbu	a4,-17(s0)
10000398:	00a00793          	li	a5,10
1000039c:	00f71663          	bne	a4,a5,100003a8 <putchar+0x2c>
100003a0:	00d00513          	li	a0,13
100003a4:	fd9ff0ef          	jal	ra,1000037c <putchar>
100003a8:	00000013          	nop
100003ac:	f00067b7          	lui	a5,0xf0006
100003b0:	80478793          	addi	a5,a5,-2044 # f0005804 <_esram+0xb80052c8>
100003b4:	0007a703          	lw	a4,0(a5)
100003b8:	00100793          	li	a5,1
100003bc:	fef708e3          	beq	a4,a5,100003ac <putchar+0x30>
100003c0:	f00067b7          	lui	a5,0xf0006
100003c4:	80078793          	addi	a5,a5,-2048 # f0005800 <_esram+0xb80052c4>
100003c8:	fef44703          	lbu	a4,-17(s0)
100003cc:	00e7a023          	sw	a4,0(a5)
100003d0:	00000013          	nop
100003d4:	01c12083          	lw	ra,28(sp)
100003d8:	01812403          	lw	s0,24(sp)
100003dc:	02010113          	addi	sp,sp,32
100003e0:	00008067          	ret

100003e4 <print>:
100003e4:	fe010113          	addi	sp,sp,-32
100003e8:	00112e23          	sw	ra,28(sp)
100003ec:	00812c23          	sw	s0,24(sp)
100003f0:	02010413          	addi	s0,sp,32
100003f4:	fea42623          	sw	a0,-20(s0)
100003f8:	01c0006f          	j	10000414 <print+0x30>
100003fc:	fec42783          	lw	a5,-20(s0)
10000400:	00178713          	addi	a4,a5,1
10000404:	fee42623          	sw	a4,-20(s0)
10000408:	0007c783          	lbu	a5,0(a5)
1000040c:	00078513          	mv	a0,a5
10000410:	f6dff0ef          	jal	ra,1000037c <putchar>
10000414:	fec42783          	lw	a5,-20(s0)
10000418:	0007c783          	lbu	a5,0(a5)
1000041c:	fe0790e3          	bnez	a5,100003fc <print+0x18>
10000420:	00000013          	nop
10000424:	00000013          	nop
10000428:	01c12083          	lw	ra,28(sp)
1000042c:	01812403          	lw	s0,24(sp)
10000430:	02010113          	addi	sp,sp,32
10000434:	00008067          	ret

10000438 <irq_getmask>:
10000438:	fe010113          	addi	sp,sp,-32
1000043c:	00812e23          	sw	s0,28(sp)
10000440:	02010413          	addi	s0,sp,32
10000444:	bc0027f3          	csrr	a5,0xbc0
10000448:	fef42623          	sw	a5,-20(s0)
1000044c:	fec42783          	lw	a5,-20(s0)
10000450:	00078513          	mv	a0,a5
10000454:	01c12403          	lw	s0,28(sp)
10000458:	02010113          	addi	sp,sp,32
1000045c:	00008067          	ret

10000460 <irq_setmask>:
10000460:	fe010113          	addi	sp,sp,-32
10000464:	00812e23          	sw	s0,28(sp)
10000468:	02010413          	addi	s0,sp,32
1000046c:	fea42623          	sw	a0,-20(s0)
10000470:	fec42783          	lw	a5,-20(s0)
10000474:	bc079073          	csrw	0xbc0,a5
10000478:	00000013          	nop
1000047c:	01c12403          	lw	s0,28(sp)
10000480:	02010113          	addi	sp,sp,32
10000484:	00008067          	ret

10000488 <main>:
10000488:	f8010113          	addi	sp,sp,-128
1000048c:	06112e23          	sw	ra,124(sp)
10000490:	06812c23          	sw	s0,120(sp)
10000494:	08010413          	addi	s0,sp,128
10000498:	260007b7          	lui	a5,0x26000
1000049c:	0a078793          	addi	a5,a5,160 # 260000a0 <_esram_rom+0x15ffec58>
100004a0:	00002737          	lui	a4,0x2
100004a4:	80970713          	addi	a4,a4,-2039 # 1809 <_fstack+0x1209>
100004a8:	00e7a023          	sw	a4,0(a5)
100004ac:	260007b7          	lui	a5,0x26000
100004b0:	09c78793          	addi	a5,a5,156 # 2600009c <_esram_rom+0x15ffec54>
100004b4:	00002737          	lui	a4,0x2
100004b8:	80970713          	addi	a4,a4,-2039 # 1809 <_fstack+0x1209>
100004bc:	00e7a023          	sw	a4,0(a5)
100004c0:	260007b7          	lui	a5,0x26000
100004c4:	09878793          	addi	a5,a5,152 # 26000098 <_esram_rom+0x15ffec50>
100004c8:	00002737          	lui	a4,0x2
100004cc:	80970713          	addi	a4,a4,-2039 # 1809 <_fstack+0x1209>
100004d0:	00e7a023          	sw	a4,0(a5)
100004d4:	260007b7          	lui	a5,0x26000
100004d8:	09478793          	addi	a5,a5,148 # 26000094 <_esram_rom+0x15ffec4c>
100004dc:	00002737          	lui	a4,0x2
100004e0:	80970713          	addi	a4,a4,-2039 # 1809 <_fstack+0x1209>
100004e4:	00e7a023          	sw	a4,0(a5)
100004e8:	260007b7          	lui	a5,0x26000
100004ec:	09078793          	addi	a5,a5,144 # 26000090 <_esram_rom+0x15ffec48>
100004f0:	00002737          	lui	a4,0x2
100004f4:	80970713          	addi	a4,a4,-2039 # 1809 <_fstack+0x1209>
100004f8:	00e7a023          	sw	a4,0(a5)
100004fc:	260007b7          	lui	a5,0x26000
10000500:	08c78793          	addi	a5,a5,140 # 2600008c <_esram_rom+0x15ffec44>
10000504:	00002737          	lui	a4,0x2
10000508:	80970713          	addi	a4,a4,-2039 # 1809 <_fstack+0x1209>
1000050c:	00e7a023          	sw	a4,0(a5)
10000510:	260007b7          	lui	a5,0x26000
10000514:	08878793          	addi	a5,a5,136 # 26000088 <_esram_rom+0x15ffec40>
10000518:	00002737          	lui	a4,0x2
1000051c:	80970713          	addi	a4,a4,-2039 # 1809 <_fstack+0x1209>
10000520:	00e7a023          	sw	a4,0(a5)
10000524:	260007b7          	lui	a5,0x26000
10000528:	08478793          	addi	a5,a5,132 # 26000084 <_esram_rom+0x15ffec3c>
1000052c:	00002737          	lui	a4,0x2
10000530:	80970713          	addi	a4,a4,-2039 # 1809 <_fstack+0x1209>
10000534:	00e7a023          	sw	a4,0(a5)
10000538:	260007b7          	lui	a5,0x26000
1000053c:	08078793          	addi	a5,a5,128 # 26000080 <_esram_rom+0x15ffec38>
10000540:	00002737          	lui	a4,0x2
10000544:	80970713          	addi	a4,a4,-2039 # 1809 <_fstack+0x1209>
10000548:	00e7a023          	sw	a4,0(a5)
1000054c:	260007b7          	lui	a5,0x26000
10000550:	07c78793          	addi	a5,a5,124 # 2600007c <_esram_rom+0x15ffec34>
10000554:	00002737          	lui	a4,0x2
10000558:	80970713          	addi	a4,a4,-2039 # 1809 <_fstack+0x1209>
1000055c:	00e7a023          	sw	a4,0(a5)
10000560:	260007b7          	lui	a5,0x26000
10000564:	07878793          	addi	a5,a5,120 # 26000078 <_esram_rom+0x15ffec30>
10000568:	00002737          	lui	a4,0x2
1000056c:	80970713          	addi	a4,a4,-2039 # 1809 <_fstack+0x1209>
10000570:	00e7a023          	sw	a4,0(a5)
10000574:	260007b7          	lui	a5,0x26000
10000578:	07478793          	addi	a5,a5,116 # 26000074 <_esram_rom+0x15ffec2c>
1000057c:	00002737          	lui	a4,0x2
10000580:	80970713          	addi	a4,a4,-2039 # 1809 <_fstack+0x1209>
10000584:	00e7a023          	sw	a4,0(a5)
10000588:	260007b7          	lui	a5,0x26000
1000058c:	07078793          	addi	a5,a5,112 # 26000070 <_esram_rom+0x15ffec28>
10000590:	00002737          	lui	a4,0x2
10000594:	80970713          	addi	a4,a4,-2039 # 1809 <_fstack+0x1209>
10000598:	00e7a023          	sw	a4,0(a5)
1000059c:	260007b7          	lui	a5,0x26000
100005a0:	06c78793          	addi	a5,a5,108 # 2600006c <_esram_rom+0x15ffec24>
100005a4:	00002737          	lui	a4,0x2
100005a8:	80970713          	addi	a4,a4,-2039 # 1809 <_fstack+0x1209>
100005ac:	00e7a023          	sw	a4,0(a5)
100005b0:	260007b7          	lui	a5,0x26000
100005b4:	06878793          	addi	a5,a5,104 # 26000068 <_esram_rom+0x15ffec20>
100005b8:	00002737          	lui	a4,0x2
100005bc:	80970713          	addi	a4,a4,-2039 # 1809 <_fstack+0x1209>
100005c0:	00e7a023          	sw	a4,0(a5)
100005c4:	260007b7          	lui	a5,0x26000
100005c8:	06478793          	addi	a5,a5,100 # 26000064 <_esram_rom+0x15ffec1c>
100005cc:	00002737          	lui	a4,0x2
100005d0:	80970713          	addi	a4,a4,-2039 # 1809 <_fstack+0x1209>
100005d4:	00e7a023          	sw	a4,0(a5)
100005d8:	260007b7          	lui	a5,0x26000
100005dc:	06078793          	addi	a5,a5,96 # 26000060 <_esram_rom+0x15ffec18>
100005e0:	00002737          	lui	a4,0x2
100005e4:	80870713          	addi	a4,a4,-2040 # 1808 <_fstack+0x1208>
100005e8:	00e7a023          	sw	a4,0(a5)
100005ec:	260007b7          	lui	a5,0x26000
100005f0:	05c78793          	addi	a5,a5,92 # 2600005c <_esram_rom+0x15ffec14>
100005f4:	00002737          	lui	a4,0x2
100005f8:	80870713          	addi	a4,a4,-2040 # 1808 <_fstack+0x1208>
100005fc:	00e7a023          	sw	a4,0(a5)
10000600:	260007b7          	lui	a5,0x26000
10000604:	05878793          	addi	a5,a5,88 # 26000058 <_esram_rom+0x15ffec10>
10000608:	00002737          	lui	a4,0x2
1000060c:	80870713          	addi	a4,a4,-2040 # 1808 <_fstack+0x1208>
10000610:	00e7a023          	sw	a4,0(a5)
10000614:	260007b7          	lui	a5,0x26000
10000618:	05478793          	addi	a5,a5,84 # 26000054 <_esram_rom+0x15ffec0c>
1000061c:	00002737          	lui	a4,0x2
10000620:	80870713          	addi	a4,a4,-2040 # 1808 <_fstack+0x1208>
10000624:	00e7a023          	sw	a4,0(a5)
10000628:	260007b7          	lui	a5,0x26000
1000062c:	05078793          	addi	a5,a5,80 # 26000050 <_esram_rom+0x15ffec08>
10000630:	00002737          	lui	a4,0x2
10000634:	80870713          	addi	a4,a4,-2040 # 1808 <_fstack+0x1208>
10000638:	00e7a023          	sw	a4,0(a5)
1000063c:	260007b7          	lui	a5,0x26000
10000640:	04c78793          	addi	a5,a5,76 # 2600004c <_esram_rom+0x15ffec04>
10000644:	00002737          	lui	a4,0x2
10000648:	80870713          	addi	a4,a4,-2040 # 1808 <_fstack+0x1208>
1000064c:	00e7a023          	sw	a4,0(a5)
10000650:	260007b7          	lui	a5,0x26000
10000654:	04878793          	addi	a5,a5,72 # 26000048 <_esram_rom+0x15ffec00>
10000658:	00002737          	lui	a4,0x2
1000065c:	80870713          	addi	a4,a4,-2040 # 1808 <_fstack+0x1208>
10000660:	00e7a023          	sw	a4,0(a5)
10000664:	260007b7          	lui	a5,0x26000
10000668:	04478793          	addi	a5,a5,68 # 26000044 <_esram_rom+0x15ffebfc>
1000066c:	00002737          	lui	a4,0x2
10000670:	80870713          	addi	a4,a4,-2040 # 1808 <_fstack+0x1208>
10000674:	00e7a023          	sw	a4,0(a5)
10000678:	260007b7          	lui	a5,0x26000
1000067c:	04078793          	addi	a5,a5,64 # 26000040 <_esram_rom+0x15ffebf8>
10000680:	00002737          	lui	a4,0x2
10000684:	80870713          	addi	a4,a4,-2040 # 1808 <_fstack+0x1208>
10000688:	00e7a023          	sw	a4,0(a5)
1000068c:	260007b7          	lui	a5,0x26000
10000690:	03878793          	addi	a5,a5,56 # 26000038 <_esram_rom+0x15ffebf0>
10000694:	00002737          	lui	a4,0x2
10000698:	80870713          	addi	a4,a4,-2040 # 1808 <_fstack+0x1208>
1000069c:	00e7a023          	sw	a4,0(a5)
100006a0:	260007b7          	lui	a5,0x26000
100006a4:	03478793          	addi	a5,a5,52 # 26000034 <_esram_rom+0x15ffebec>
100006a8:	00002737          	lui	a4,0x2
100006ac:	80870713          	addi	a4,a4,-2040 # 1808 <_fstack+0x1208>
100006b0:	00e7a023          	sw	a4,0(a5)
100006b4:	260007b7          	lui	a5,0x26000
100006b8:	03078793          	addi	a5,a5,48 # 26000030 <_esram_rom+0x15ffebe8>
100006bc:	00002737          	lui	a4,0x2
100006c0:	80870713          	addi	a4,a4,-2040 # 1808 <_fstack+0x1208>
100006c4:	00e7a023          	sw	a4,0(a5)
100006c8:	260007b7          	lui	a5,0x26000
100006cc:	02c78793          	addi	a5,a5,44 # 2600002c <_esram_rom+0x15ffebe4>
100006d0:	00002737          	lui	a4,0x2
100006d4:	80870713          	addi	a4,a4,-2040 # 1808 <_fstack+0x1208>
100006d8:	00e7a023          	sw	a4,0(a5)
100006dc:	260007b7          	lui	a5,0x26000
100006e0:	02878793          	addi	a5,a5,40 # 26000028 <_esram_rom+0x15ffebe0>
100006e4:	00002737          	lui	a4,0x2
100006e8:	80870713          	addi	a4,a4,-2040 # 1808 <_fstack+0x1208>
100006ec:	00e7a023          	sw	a4,0(a5)
100006f0:	260007b7          	lui	a5,0x26000
100006f4:	02478793          	addi	a5,a5,36 # 26000024 <_esram_rom+0x15ffebdc>
100006f8:	00002737          	lui	a4,0x2
100006fc:	80870713          	addi	a4,a4,-2040 # 1808 <_fstack+0x1208>
10000700:	00e7a023          	sw	a4,0(a5)
10000704:	260007b7          	lui	a5,0x26000
10000708:	03c78793          	addi	a5,a5,60 # 2600003c <_esram_rom+0x15ffebf4>
1000070c:	00002737          	lui	a4,0x2
10000710:	80970713          	addi	a4,a4,-2039 # 1809 <_fstack+0x1209>
10000714:	00e7a023          	sw	a4,0(a5)
10000718:	260007b7          	lui	a5,0x26000
1000071c:	03878793          	addi	a5,a5,56 # 26000038 <_esram_rom+0x15ffebf0>
10000720:	40200713          	li	a4,1026
10000724:	00e7a023          	sw	a4,0(a5)
10000728:	f00067b7          	lui	a5,0xf0006
1000072c:	00100713          	li	a4,1
10000730:	00e7a023          	sw	a4,0(a5) # f0006000 <_esram+0xb8005ac4>
10000734:	d05ff0ef          	jal	ra,10000438 <irq_getmask>
10000738:	00050793          	mv	a5,a0
1000073c:	f8f42823          	sw	a5,-112(s0)
10000740:	f9042783          	lw	a5,-112(s0)
10000744:	0047e793          	ori	a5,a5,4
10000748:	f8f42823          	sw	a5,-112(s0)
1000074c:	f9042783          	lw	a5,-112(s0)
10000750:	00078513          	mv	a0,a5
10000754:	d0dff0ef          	jal	ra,10000460 <irq_setmask>
10000758:	00100513          	li	a0,1
1000075c:	be9ff0ef          	jal	ra,10000344 <user_irq_0_ev_enable_write>
10000760:	260007b7          	lui	a5,0x26000
10000764:	00100713          	li	a4,1
10000768:	00e7a023          	sw	a4,0(a5) # 26000000 <_esram_rom+0x15ffebb8>
1000076c:	00000013          	nop
10000770:	260007b7          	lui	a5,0x26000
10000774:	0007a703          	lw	a4,0(a5) # 26000000 <_esram_rom+0x15ffebb8>
10000778:	00100793          	li	a5,1
1000077c:	fef70ae3          	beq	a4,a5,10000770 <main+0x2e8>
10000780:	f00037b7          	lui	a5,0xf0003
10000784:	00c78713          	addi	a4,a5,12 # f000300c <_esram+0xb8002ad0>
10000788:	00000793          	li	a5,0
1000078c:	00f72023          	sw	a5,0(a4)
10000790:	f0003737          	lui	a4,0xf0003
10000794:	01c70713          	addi	a4,a4,28 # f000301c <_esram+0xb8002ae0>
10000798:	00f72023          	sw	a5,0(a4)
1000079c:	f00037b7          	lui	a5,0xf0003
100007a0:	00878713          	addi	a4,a5,8 # f0003008 <_esram+0xb8002acc>
100007a4:	fff00793          	li	a5,-1
100007a8:	00f72023          	sw	a5,0(a4)
100007ac:	f0003737          	lui	a4,0xf0003
100007b0:	01870713          	addi	a4,a4,24 # f0003018 <_esram+0xb8002adc>
100007b4:	00f72023          	sw	a5,0(a4)
100007b8:	f00037b7          	lui	a5,0xf0003
100007bc:	00478713          	addi	a4,a5,4 # f0003004 <_esram+0xb8002ac8>
100007c0:	00000793          	li	a5,0
100007c4:	00f72023          	sw	a5,0(a4)
100007c8:	f0003737          	lui	a4,0xf0003
100007cc:	01470713          	addi	a4,a4,20 # f0003014 <_esram+0xb8002ad8>
100007d0:	00f72023          	sw	a5,0(a4)
100007d4:	f0003737          	lui	a4,0xf0003
100007d8:	00000793          	li	a5,0
100007dc:	00f72023          	sw	a5,0(a4) # f0003000 <_esram+0xb8002ac4>
100007e0:	f0003737          	lui	a4,0xf0003
100007e4:	01070713          	addi	a4,a4,16 # f0003010 <_esram+0xb8002ad4>
100007e8:	00f72023          	sw	a5,0(a4)
100007ec:	260007b7          	lui	a5,0x26000
100007f0:	00c78793          	addi	a5,a5,12 # 2600000c <_esram_rom+0x15ffebc4>
100007f4:	ab400737          	lui	a4,0xab400
100007f8:	00e7a023          	sw	a4,0(a5)
100007fc:	f00037b7          	lui	a5,0xf0003
10000800:	03878793          	addi	a5,a5,56 # f0003038 <_esram+0xb8002afc>
10000804:	0007a023          	sw	zero,0(a5)
10000808:	f00037b7          	lui	a5,0xf0003
1000080c:	00878713          	addi	a4,a5,8 # f0003008 <_esram+0xb8002acc>
10000810:	00000793          	li	a5,0
10000814:	00f72023          	sw	a5,0(a4) # ab400000 <_esram+0x733ffac4>
10000818:	f0003737          	lui	a4,0xf0003
1000081c:	01870713          	addi	a4,a4,24 # f0003018 <_esram+0xb8002adc>
10000820:	00f72023          	sw	a5,0(a4)
10000824:	000027b7          	lui	a5,0x2
10000828:	71078793          	addi	a5,a5,1808 # 2710 <_fstack+0x2110>
1000082c:	f8f42623          	sw	a5,-116(s0)
10000830:	28000097          	auipc	ra,0x28000
10000834:	94c080e7          	jalr	-1716(ra) # 3800017c <fir>
10000838:	f8a42423          	sw	a0,-120(s0)
1000083c:	f8842783          	lw	a5,-120(s0)
10000840:	0007a783          	lw	a5,0(a5)
10000844:	01079713          	slli	a4,a5,0x10
10000848:	260007b7          	lui	a5,0x26000
1000084c:	00c78793          	addi	a5,a5,12 # 2600000c <_esram_rom+0x15ffebc4>
10000850:	00e7a023          	sw	a4,0(a5)
10000854:	f8842783          	lw	a5,-120(s0)
10000858:	00478793          	addi	a5,a5,4
1000085c:	0007a783          	lw	a5,0(a5)
10000860:	01079713          	slli	a4,a5,0x10
10000864:	260007b7          	lui	a5,0x26000
10000868:	00c78793          	addi	a5,a5,12 # 2600000c <_esram_rom+0x15ffebc4>
1000086c:	00e7a023          	sw	a4,0(a5)
10000870:	f8842783          	lw	a5,-120(s0)
10000874:	00878793          	addi	a5,a5,8
10000878:	0007a783          	lw	a5,0(a5)
1000087c:	01079713          	slli	a4,a5,0x10
10000880:	260007b7          	lui	a5,0x26000
10000884:	00c78793          	addi	a5,a5,12 # 2600000c <_esram_rom+0x15ffebc4>
10000888:	00e7a023          	sw	a4,0(a5)
1000088c:	f8842783          	lw	a5,-120(s0)
10000890:	00c78793          	addi	a5,a5,12
10000894:	0007a783          	lw	a5,0(a5)
10000898:	01079713          	slli	a4,a5,0x10
1000089c:	260007b7          	lui	a5,0x26000
100008a0:	00c78793          	addi	a5,a5,12 # 2600000c <_esram_rom+0x15ffebc4>
100008a4:	00e7a023          	sw	a4,0(a5)
100008a8:	f8842783          	lw	a5,-120(s0)
100008ac:	01078793          	addi	a5,a5,16
100008b0:	0007a783          	lw	a5,0(a5)
100008b4:	01079713          	slli	a4,a5,0x10
100008b8:	260007b7          	lui	a5,0x26000
100008bc:	00c78793          	addi	a5,a5,12 # 2600000c <_esram_rom+0x15ffebc4>
100008c0:	00e7a023          	sw	a4,0(a5)
100008c4:	f8842783          	lw	a5,-120(s0)
100008c8:	01478793          	addi	a5,a5,20
100008cc:	0007a783          	lw	a5,0(a5)
100008d0:	01079713          	slli	a4,a5,0x10
100008d4:	260007b7          	lui	a5,0x26000
100008d8:	00c78793          	addi	a5,a5,12 # 2600000c <_esram_rom+0x15ffebc4>
100008dc:	00e7a023          	sw	a4,0(a5)
100008e0:	f8842783          	lw	a5,-120(s0)
100008e4:	01878793          	addi	a5,a5,24
100008e8:	0007a783          	lw	a5,0(a5)
100008ec:	01079713          	slli	a4,a5,0x10
100008f0:	260007b7          	lui	a5,0x26000
100008f4:	00c78793          	addi	a5,a5,12 # 2600000c <_esram_rom+0x15ffebc4>
100008f8:	00e7a023          	sw	a4,0(a5)
100008fc:	f8842783          	lw	a5,-120(s0)
10000900:	01c78793          	addi	a5,a5,28
10000904:	0007a783          	lw	a5,0(a5)
10000908:	01079713          	slli	a4,a5,0x10
1000090c:	260007b7          	lui	a5,0x26000
10000910:	00c78793          	addi	a5,a5,12 # 2600000c <_esram_rom+0x15ffebc4>
10000914:	00e7a023          	sw	a4,0(a5)
10000918:	f8842783          	lw	a5,-120(s0)
1000091c:	02078793          	addi	a5,a5,32
10000920:	0007a783          	lw	a5,0(a5)
10000924:	01079713          	slli	a4,a5,0x10
10000928:	260007b7          	lui	a5,0x26000
1000092c:	00c78793          	addi	a5,a5,12 # 2600000c <_esram_rom+0x15ffebc4>
10000930:	00e7a023          	sw	a4,0(a5)
10000934:	f8842783          	lw	a5,-120(s0)
10000938:	02478793          	addi	a5,a5,36
1000093c:	0007a783          	lw	a5,0(a5)
10000940:	01079713          	slli	a4,a5,0x10
10000944:	260007b7          	lui	a5,0x26000
10000948:	00c78793          	addi	a5,a5,12 # 2600000c <_esram_rom+0x15ffebc4>
1000094c:	00e7a023          	sw	a4,0(a5)
10000950:	f8842783          	lw	a5,-120(s0)
10000954:	02878793          	addi	a5,a5,40
10000958:	0007a783          	lw	a5,0(a5)
1000095c:	01079713          	slli	a4,a5,0x10
10000960:	260007b7          	lui	a5,0x26000
10000964:	00c78793          	addi	a5,a5,12 # 2600000c <_esram_rom+0x15ffebc4>
10000968:	00e7a023          	sw	a4,0(a5)
1000096c:	260007b7          	lui	a5,0x26000
10000970:	00c78793          	addi	a5,a5,12 # 2600000c <_esram_rom+0x15ffebc4>
10000974:	ab500737          	lui	a4,0xab500
10000978:	00e7a023          	sw	a4,0(a5)
1000097c:	f00067b7          	lui	a5,0xf0006
10000980:	00100713          	li	a4,1
10000984:	00e7a023          	sw	a4,0(a5) # f0006000 <_esram+0xb8005ac4>
10000988:	ab1ff0ef          	jal	ra,10000438 <irq_getmask>
1000098c:	00050793          	mv	a5,a0
10000990:	f8f42823          	sw	a5,-112(s0)
10000994:	f9042783          	lw	a5,-112(s0)
10000998:	0047e793          	ori	a5,a5,4
1000099c:	f8f42823          	sw	a5,-112(s0)
100009a0:	f9042783          	lw	a5,-112(s0)
100009a4:	00078513          	mv	a0,a5
100009a8:	ab9ff0ef          	jal	ra,10000460 <irq_setmask>
100009ac:	00100513          	li	a0,1
100009b0:	995ff0ef          	jal	ra,10000344 <user_irq_0_ev_enable_write>
100009b4:	260007b7          	lui	a5,0x26000
100009b8:	00100713          	li	a4,1
100009bc:	00e7a023          	sw	a4,0(a5) # 26000000 <_esram_rom+0x15ffebb8>
100009c0:	00000013          	nop
100009c4:	260007b7          	lui	a5,0x26000
100009c8:	0007a703          	lw	a4,0(a5) # 26000000 <_esram_rom+0x15ffebb8>
100009cc:	00100793          	li	a5,1
100009d0:	fef70ae3          	beq	a4,a5,100009c4 <main+0x53c>
100009d4:	f00037b7          	lui	a5,0xf0003
100009d8:	00c78713          	addi	a4,a5,12 # f000300c <_esram+0xb8002ad0>
100009dc:	00000793          	li	a5,0
100009e0:	00f72023          	sw	a5,0(a4) # ab500000 <_esram+0x734ffac4>
100009e4:	f0003737          	lui	a4,0xf0003
100009e8:	01c70713          	addi	a4,a4,28 # f000301c <_esram+0xb8002ae0>
100009ec:	00f72023          	sw	a5,0(a4)
100009f0:	f00037b7          	lui	a5,0xf0003
100009f4:	00878713          	addi	a4,a5,8 # f0003008 <_esram+0xb8002acc>
100009f8:	fff00793          	li	a5,-1
100009fc:	00f72023          	sw	a5,0(a4)
10000a00:	f0003737          	lui	a4,0xf0003
10000a04:	01870713          	addi	a4,a4,24 # f0003018 <_esram+0xb8002adc>
10000a08:	00f72023          	sw	a5,0(a4)
10000a0c:	f00037b7          	lui	a5,0xf0003
10000a10:	00478713          	addi	a4,a5,4 # f0003004 <_esram+0xb8002ac8>
10000a14:	00000793          	li	a5,0
10000a18:	00f72023          	sw	a5,0(a4)
10000a1c:	f0003737          	lui	a4,0xf0003
10000a20:	01470713          	addi	a4,a4,20 # f0003014 <_esram+0xb8002ad8>
10000a24:	00f72023          	sw	a5,0(a4)
10000a28:	f0003737          	lui	a4,0xf0003
10000a2c:	00000793          	li	a5,0
10000a30:	00f72023          	sw	a5,0(a4) # f0003000 <_esram+0xb8002ac4>
10000a34:	f0003737          	lui	a4,0xf0003
10000a38:	01070713          	addi	a4,a4,16 # f0003010 <_esram+0xb8002ad4>
10000a3c:	00f72023          	sw	a5,0(a4)
10000a40:	260007b7          	lui	a5,0x26000
10000a44:	00c78793          	addi	a5,a5,12 # 2600000c <_esram_rom+0x15ffebc4>
10000a48:	ab410737          	lui	a4,0xab410
10000a4c:	00e7a023          	sw	a4,0(a5)
10000a50:	fe042623          	sw	zero,-20(s0)
10000a54:	0100006f          	j	10000a64 <main+0x5dc>
10000a58:	fec42783          	lw	a5,-20(s0)
10000a5c:	00178793          	addi	a5,a5,1
10000a60:	fef42623          	sw	a5,-20(s0)
10000a64:	fec42703          	lw	a4,-20(s0)
10000a68:	f8c42783          	lw	a5,-116(s0)
10000a6c:	fef746e3          	blt	a4,a5,10000a58 <main+0x5d0>
10000a70:	f00037b7          	lui	a5,0xf0003
10000a74:	03878793          	addi	a5,a5,56 # f0003038 <_esram+0xb8002afc>
10000a78:	0007a023          	sw	zero,0(a5)
10000a7c:	f00037b7          	lui	a5,0xf0003
10000a80:	00878713          	addi	a4,a5,8 # f0003008 <_esram+0xb8002acc>
10000a84:	00000793          	li	a5,0
10000a88:	00f72023          	sw	a5,0(a4) # ab410000 <_esram+0x7340fac4>
10000a8c:	f0003737          	lui	a4,0xf0003
10000a90:	01870713          	addi	a4,a4,24 # f0003018 <_esram+0xb8002adc>
10000a94:	00f72023          	sw	a5,0(a4)
10000a98:	27fff097          	auipc	ra,0x27fff
10000a9c:	764080e7          	jalr	1892(ra) # 380001fc <matmul>
10000aa0:	f8a42223          	sw	a0,-124(s0)
10000aa4:	fe042423          	sw	zero,-24(s0)
10000aa8:	0100006f          	j	10000ab8 <main+0x630>
10000aac:	fe842783          	lw	a5,-24(s0)
10000ab0:	00178793          	addi	a5,a5,1
10000ab4:	fef42423          	sw	a5,-24(s0)
10000ab8:	fe842703          	lw	a4,-24(s0)
10000abc:	f8c42783          	lw	a5,-116(s0)
10000ac0:	fef746e3          	blt	a4,a5,10000aac <main+0x624>
10000ac4:	f8442783          	lw	a5,-124(s0)
10000ac8:	0007a783          	lw	a5,0(a5)
10000acc:	01079713          	slli	a4,a5,0x10
10000ad0:	260007b7          	lui	a5,0x26000
10000ad4:	00c78793          	addi	a5,a5,12 # 2600000c <_esram_rom+0x15ffebc4>
10000ad8:	00e7a023          	sw	a4,0(a5)
10000adc:	fe042223          	sw	zero,-28(s0)
10000ae0:	0100006f          	j	10000af0 <main+0x668>
10000ae4:	fe442783          	lw	a5,-28(s0)
10000ae8:	00178793          	addi	a5,a5,1
10000aec:	fef42223          	sw	a5,-28(s0)
10000af0:	fe442703          	lw	a4,-28(s0)
10000af4:	f8c42783          	lw	a5,-116(s0)
10000af8:	fef746e3          	blt	a4,a5,10000ae4 <main+0x65c>
10000afc:	f8442783          	lw	a5,-124(s0)
10000b00:	00478793          	addi	a5,a5,4
10000b04:	0007a783          	lw	a5,0(a5)
10000b08:	01079713          	slli	a4,a5,0x10
10000b0c:	260007b7          	lui	a5,0x26000
10000b10:	00c78793          	addi	a5,a5,12 # 2600000c <_esram_rom+0x15ffebc4>
10000b14:	00e7a023          	sw	a4,0(a5)
10000b18:	fe042023          	sw	zero,-32(s0)
10000b1c:	0100006f          	j	10000b2c <main+0x6a4>
10000b20:	fe042783          	lw	a5,-32(s0)
10000b24:	00178793          	addi	a5,a5,1
10000b28:	fef42023          	sw	a5,-32(s0)
10000b2c:	fe042703          	lw	a4,-32(s0)
10000b30:	f8c42783          	lw	a5,-116(s0)
10000b34:	fef746e3          	blt	a4,a5,10000b20 <main+0x698>
10000b38:	f8442783          	lw	a5,-124(s0)
10000b3c:	00878793          	addi	a5,a5,8
10000b40:	0007a783          	lw	a5,0(a5)
10000b44:	01079713          	slli	a4,a5,0x10
10000b48:	260007b7          	lui	a5,0x26000
10000b4c:	00c78793          	addi	a5,a5,12 # 2600000c <_esram_rom+0x15ffebc4>
10000b50:	00e7a023          	sw	a4,0(a5)
10000b54:	fc042e23          	sw	zero,-36(s0)
10000b58:	0100006f          	j	10000b68 <main+0x6e0>
10000b5c:	fdc42783          	lw	a5,-36(s0)
10000b60:	00178793          	addi	a5,a5,1
10000b64:	fcf42e23          	sw	a5,-36(s0)
10000b68:	fdc42703          	lw	a4,-36(s0)
10000b6c:	f8c42783          	lw	a5,-116(s0)
10000b70:	fef746e3          	blt	a4,a5,10000b5c <main+0x6d4>
10000b74:	f8442783          	lw	a5,-124(s0)
10000b78:	00c78793          	addi	a5,a5,12
10000b7c:	0007a783          	lw	a5,0(a5)
10000b80:	01079713          	slli	a4,a5,0x10
10000b84:	260007b7          	lui	a5,0x26000
10000b88:	00c78793          	addi	a5,a5,12 # 2600000c <_esram_rom+0x15ffebc4>
10000b8c:	00e7a023          	sw	a4,0(a5)
10000b90:	fc042c23          	sw	zero,-40(s0)
10000b94:	0100006f          	j	10000ba4 <main+0x71c>
10000b98:	fd842783          	lw	a5,-40(s0)
10000b9c:	00178793          	addi	a5,a5,1
10000ba0:	fcf42c23          	sw	a5,-40(s0)
10000ba4:	fd842703          	lw	a4,-40(s0)
10000ba8:	f8c42783          	lw	a5,-116(s0)
10000bac:	fef746e3          	blt	a4,a5,10000b98 <main+0x710>
10000bb0:	f8442783          	lw	a5,-124(s0)
10000bb4:	02478793          	addi	a5,a5,36
10000bb8:	0007a783          	lw	a5,0(a5)
10000bbc:	01079713          	slli	a4,a5,0x10
10000bc0:	260007b7          	lui	a5,0x26000
10000bc4:	00c78793          	addi	a5,a5,12 # 2600000c <_esram_rom+0x15ffebc4>
10000bc8:	00e7a023          	sw	a4,0(a5)
10000bcc:	fc042a23          	sw	zero,-44(s0)
10000bd0:	0100006f          	j	10000be0 <main+0x758>
10000bd4:	fd442783          	lw	a5,-44(s0)
10000bd8:	00178793          	addi	a5,a5,1
10000bdc:	fcf42a23          	sw	a5,-44(s0)
10000be0:	fd442703          	lw	a4,-44(s0)
10000be4:	f8c42783          	lw	a5,-116(s0)
10000be8:	fef746e3          	blt	a4,a5,10000bd4 <main+0x74c>
10000bec:	260007b7          	lui	a5,0x26000
10000bf0:	00c78793          	addi	a5,a5,12 # 2600000c <_esram_rom+0x15ffebc4>
10000bf4:	ab520737          	lui	a4,0xab520
10000bf8:	00e7a023          	sw	a4,0(a5)
10000bfc:	fc042823          	sw	zero,-48(s0)
10000c00:	0100006f          	j	10000c10 <main+0x788>
10000c04:	fd042783          	lw	a5,-48(s0)
10000c08:	00178793          	addi	a5,a5,1
10000c0c:	fcf42823          	sw	a5,-48(s0)
10000c10:	fd042703          	lw	a4,-48(s0)
10000c14:	f8c42783          	lw	a5,-116(s0)
10000c18:	fef746e3          	blt	a4,a5,10000c04 <main+0x77c>
10000c1c:	f00067b7          	lui	a5,0xf0006
10000c20:	00100713          	li	a4,1
10000c24:	00e7a023          	sw	a4,0(a5) # f0006000 <_esram+0xb8005ac4>
10000c28:	811ff0ef          	jal	ra,10000438 <irq_getmask>
10000c2c:	00050793          	mv	a5,a0
10000c30:	f8f42823          	sw	a5,-112(s0)
10000c34:	f9042783          	lw	a5,-112(s0)
10000c38:	0047e793          	ori	a5,a5,4
10000c3c:	f8f42823          	sw	a5,-112(s0)
10000c40:	f9042783          	lw	a5,-112(s0)
10000c44:	00078513          	mv	a0,a5
10000c48:	819ff0ef          	jal	ra,10000460 <irq_setmask>
10000c4c:	00100513          	li	a0,1
10000c50:	ef4ff0ef          	jal	ra,10000344 <user_irq_0_ev_enable_write>
10000c54:	260007b7          	lui	a5,0x26000
10000c58:	00100713          	li	a4,1
10000c5c:	00e7a023          	sw	a4,0(a5) # 26000000 <_esram_rom+0x15ffebb8>
10000c60:	00000013          	nop
10000c64:	260007b7          	lui	a5,0x26000
10000c68:	0007a703          	lw	a4,0(a5) # 26000000 <_esram_rom+0x15ffebb8>
10000c6c:	00100793          	li	a5,1
10000c70:	fef70ae3          	beq	a4,a5,10000c64 <main+0x7dc>
10000c74:	f00037b7          	lui	a5,0xf0003
10000c78:	00c78713          	addi	a4,a5,12 # f000300c <_esram+0xb8002ad0>
10000c7c:	00000793          	li	a5,0
10000c80:	00f72023          	sw	a5,0(a4) # ab520000 <_esram+0x7351fac4>
10000c84:	f0003737          	lui	a4,0xf0003
10000c88:	01c70713          	addi	a4,a4,28 # f000301c <_esram+0xb8002ae0>
10000c8c:	00f72023          	sw	a5,0(a4)
10000c90:	f00037b7          	lui	a5,0xf0003
10000c94:	00878713          	addi	a4,a5,8 # f0003008 <_esram+0xb8002acc>
10000c98:	fff00793          	li	a5,-1
10000c9c:	00f72023          	sw	a5,0(a4)
10000ca0:	f0003737          	lui	a4,0xf0003
10000ca4:	01870713          	addi	a4,a4,24 # f0003018 <_esram+0xb8002adc>
10000ca8:	00f72023          	sw	a5,0(a4)
10000cac:	f00037b7          	lui	a5,0xf0003
10000cb0:	00478713          	addi	a4,a5,4 # f0003004 <_esram+0xb8002ac8>
10000cb4:	00000793          	li	a5,0
10000cb8:	00f72023          	sw	a5,0(a4)
10000cbc:	f0003737          	lui	a4,0xf0003
10000cc0:	01470713          	addi	a4,a4,20 # f0003014 <_esram+0xb8002ad8>
10000cc4:	00f72023          	sw	a5,0(a4)
10000cc8:	f0003737          	lui	a4,0xf0003
10000ccc:	00000793          	li	a5,0
10000cd0:	00f72023          	sw	a5,0(a4) # f0003000 <_esram+0xb8002ac4>
10000cd4:	f0003737          	lui	a4,0xf0003
10000cd8:	01070713          	addi	a4,a4,16 # f0003010 <_esram+0xb8002ad4>
10000cdc:	00f72023          	sw	a5,0(a4)
10000ce0:	260007b7          	lui	a5,0x26000
10000ce4:	00c78793          	addi	a5,a5,12 # 2600000c <_esram_rom+0x15ffebc4>
10000ce8:	ab420737          	lui	a4,0xab420
10000cec:	00e7a023          	sw	a4,0(a5)
10000cf0:	fc042623          	sw	zero,-52(s0)
10000cf4:	0100006f          	j	10000d04 <main+0x87c>
10000cf8:	fcc42783          	lw	a5,-52(s0)
10000cfc:	00178793          	addi	a5,a5,1
10000d00:	fcf42623          	sw	a5,-52(s0)
10000d04:	fcc42703          	lw	a4,-52(s0)
10000d08:	f8c42783          	lw	a5,-116(s0)
10000d0c:	fef746e3          	blt	a4,a5,10000cf8 <main+0x870>
10000d10:	f00037b7          	lui	a5,0xf0003
10000d14:	03878793          	addi	a5,a5,56 # f0003038 <_esram+0xb8002afc>
10000d18:	0007a023          	sw	zero,0(a5)
10000d1c:	f00037b7          	lui	a5,0xf0003
10000d20:	00878713          	addi	a4,a5,8 # f0003008 <_esram+0xb8002acc>
10000d24:	00000793          	li	a5,0
10000d28:	00f72023          	sw	a5,0(a4) # ab420000 <_esram+0x7341fac4>
10000d2c:	f0003737          	lui	a4,0xf0003
10000d30:	01870713          	addi	a4,a4,24 # f0003018 <_esram+0xb8002adc>
10000d34:	00f72023          	sw	a5,0(a4)
10000d38:	27fff097          	auipc	ra,0x27fff
10000d3c:	7d0080e7          	jalr	2000(ra) # 38000508 <qsort>
10000d40:	f8a42023          	sw	a0,-128(s0)
10000d44:	fc042423          	sw	zero,-56(s0)
10000d48:	0100006f          	j	10000d58 <main+0x8d0>
10000d4c:	fc842783          	lw	a5,-56(s0)
10000d50:	00178793          	addi	a5,a5,1
10000d54:	fcf42423          	sw	a5,-56(s0)
10000d58:	fc842703          	lw	a4,-56(s0)
10000d5c:	f8c42783          	lw	a5,-116(s0)
10000d60:	fef746e3          	blt	a4,a5,10000d4c <main+0x8c4>
10000d64:	f8042783          	lw	a5,-128(s0)
10000d68:	0007a783          	lw	a5,0(a5)
10000d6c:	01079713          	slli	a4,a5,0x10
10000d70:	260007b7          	lui	a5,0x26000
10000d74:	00c78793          	addi	a5,a5,12 # 2600000c <_esram_rom+0x15ffebc4>
10000d78:	00e7a023          	sw	a4,0(a5)
10000d7c:	fc042223          	sw	zero,-60(s0)
10000d80:	0100006f          	j	10000d90 <main+0x908>
10000d84:	fc442783          	lw	a5,-60(s0)
10000d88:	00178793          	addi	a5,a5,1
10000d8c:	fcf42223          	sw	a5,-60(s0)
10000d90:	fc442703          	lw	a4,-60(s0)
10000d94:	f8c42783          	lw	a5,-116(s0)
10000d98:	fef746e3          	blt	a4,a5,10000d84 <main+0x8fc>
10000d9c:	f8042783          	lw	a5,-128(s0)
10000da0:	00478793          	addi	a5,a5,4
10000da4:	0007a783          	lw	a5,0(a5)
10000da8:	01079713          	slli	a4,a5,0x10
10000dac:	260007b7          	lui	a5,0x26000
10000db0:	00c78793          	addi	a5,a5,12 # 2600000c <_esram_rom+0x15ffebc4>
10000db4:	00e7a023          	sw	a4,0(a5)
10000db8:	fc042023          	sw	zero,-64(s0)
10000dbc:	0100006f          	j	10000dcc <main+0x944>
10000dc0:	fc042783          	lw	a5,-64(s0)
10000dc4:	00178793          	addi	a5,a5,1
10000dc8:	fcf42023          	sw	a5,-64(s0)
10000dcc:	fc042703          	lw	a4,-64(s0)
10000dd0:	f8c42783          	lw	a5,-116(s0)
10000dd4:	fef746e3          	blt	a4,a5,10000dc0 <main+0x938>
10000dd8:	f8042783          	lw	a5,-128(s0)
10000ddc:	00878793          	addi	a5,a5,8
10000de0:	0007a783          	lw	a5,0(a5)
10000de4:	01079713          	slli	a4,a5,0x10
10000de8:	260007b7          	lui	a5,0x26000
10000dec:	00c78793          	addi	a5,a5,12 # 2600000c <_esram_rom+0x15ffebc4>
10000df0:	00e7a023          	sw	a4,0(a5)
10000df4:	fa042e23          	sw	zero,-68(s0)
10000df8:	0100006f          	j	10000e08 <main+0x980>
10000dfc:	fbc42783          	lw	a5,-68(s0)
10000e00:	00178793          	addi	a5,a5,1
10000e04:	faf42e23          	sw	a5,-68(s0)
10000e08:	fbc42703          	lw	a4,-68(s0)
10000e0c:	f8c42783          	lw	a5,-116(s0)
10000e10:	fef746e3          	blt	a4,a5,10000dfc <main+0x974>
10000e14:	f8042783          	lw	a5,-128(s0)
10000e18:	00c78793          	addi	a5,a5,12
10000e1c:	0007a783          	lw	a5,0(a5)
10000e20:	01079713          	slli	a4,a5,0x10
10000e24:	260007b7          	lui	a5,0x26000
10000e28:	00c78793          	addi	a5,a5,12 # 2600000c <_esram_rom+0x15ffebc4>
10000e2c:	00e7a023          	sw	a4,0(a5)
10000e30:	fa042c23          	sw	zero,-72(s0)
10000e34:	0100006f          	j	10000e44 <main+0x9bc>
10000e38:	fb842783          	lw	a5,-72(s0)
10000e3c:	00178793          	addi	a5,a5,1
10000e40:	faf42c23          	sw	a5,-72(s0)
10000e44:	fb842703          	lw	a4,-72(s0)
10000e48:	f8c42783          	lw	a5,-116(s0)
10000e4c:	fef746e3          	blt	a4,a5,10000e38 <main+0x9b0>
10000e50:	f8042783          	lw	a5,-128(s0)
10000e54:	01078793          	addi	a5,a5,16
10000e58:	0007a783          	lw	a5,0(a5)
10000e5c:	01079713          	slli	a4,a5,0x10
10000e60:	260007b7          	lui	a5,0x26000
10000e64:	00c78793          	addi	a5,a5,12 # 2600000c <_esram_rom+0x15ffebc4>
10000e68:	00e7a023          	sw	a4,0(a5)
10000e6c:	fa042a23          	sw	zero,-76(s0)
10000e70:	0100006f          	j	10000e80 <main+0x9f8>
10000e74:	fb442783          	lw	a5,-76(s0)
10000e78:	00178793          	addi	a5,a5,1
10000e7c:	faf42a23          	sw	a5,-76(s0)
10000e80:	fb442703          	lw	a4,-76(s0)
10000e84:	f8c42783          	lw	a5,-116(s0)
10000e88:	fef746e3          	blt	a4,a5,10000e74 <main+0x9ec>
10000e8c:	f8042783          	lw	a5,-128(s0)
10000e90:	01478793          	addi	a5,a5,20
10000e94:	0007a783          	lw	a5,0(a5)
10000e98:	01079713          	slli	a4,a5,0x10
10000e9c:	260007b7          	lui	a5,0x26000
10000ea0:	00c78793          	addi	a5,a5,12 # 2600000c <_esram_rom+0x15ffebc4>
10000ea4:	00e7a023          	sw	a4,0(a5)
10000ea8:	fa042823          	sw	zero,-80(s0)
10000eac:	0100006f          	j	10000ebc <main+0xa34>
10000eb0:	fb042783          	lw	a5,-80(s0)
10000eb4:	00178793          	addi	a5,a5,1
10000eb8:	faf42823          	sw	a5,-80(s0)
10000ebc:	fb042703          	lw	a4,-80(s0)
10000ec0:	f8c42783          	lw	a5,-116(s0)
10000ec4:	fef746e3          	blt	a4,a5,10000eb0 <main+0xa28>
10000ec8:	f8042783          	lw	a5,-128(s0)
10000ecc:	01878793          	addi	a5,a5,24
10000ed0:	0007a783          	lw	a5,0(a5)
10000ed4:	01079713          	slli	a4,a5,0x10
10000ed8:	260007b7          	lui	a5,0x26000
10000edc:	00c78793          	addi	a5,a5,12 # 2600000c <_esram_rom+0x15ffebc4>
10000ee0:	00e7a023          	sw	a4,0(a5)
10000ee4:	fa042623          	sw	zero,-84(s0)
10000ee8:	0100006f          	j	10000ef8 <main+0xa70>
10000eec:	fac42783          	lw	a5,-84(s0)
10000ef0:	00178793          	addi	a5,a5,1
10000ef4:	faf42623          	sw	a5,-84(s0)
10000ef8:	fac42703          	lw	a4,-84(s0)
10000efc:	f8c42783          	lw	a5,-116(s0)
10000f00:	fef746e3          	blt	a4,a5,10000eec <main+0xa64>
10000f04:	f8042783          	lw	a5,-128(s0)
10000f08:	01c78793          	addi	a5,a5,28
10000f0c:	0007a783          	lw	a5,0(a5)
10000f10:	01079713          	slli	a4,a5,0x10
10000f14:	260007b7          	lui	a5,0x26000
10000f18:	00c78793          	addi	a5,a5,12 # 2600000c <_esram_rom+0x15ffebc4>
10000f1c:	00e7a023          	sw	a4,0(a5)
10000f20:	fa042423          	sw	zero,-88(s0)
10000f24:	0100006f          	j	10000f34 <main+0xaac>
10000f28:	fa842783          	lw	a5,-88(s0)
10000f2c:	00178793          	addi	a5,a5,1
10000f30:	faf42423          	sw	a5,-88(s0)
10000f34:	fa842703          	lw	a4,-88(s0)
10000f38:	f8c42783          	lw	a5,-116(s0)
10000f3c:	fef746e3          	blt	a4,a5,10000f28 <main+0xaa0>
10000f40:	f8042783          	lw	a5,-128(s0)
10000f44:	02078793          	addi	a5,a5,32
10000f48:	0007a783          	lw	a5,0(a5)
10000f4c:	01079713          	slli	a4,a5,0x10
10000f50:	260007b7          	lui	a5,0x26000
10000f54:	00c78793          	addi	a5,a5,12 # 2600000c <_esram_rom+0x15ffebc4>
10000f58:	00e7a023          	sw	a4,0(a5)
10000f5c:	fa042223          	sw	zero,-92(s0)
10000f60:	0100006f          	j	10000f70 <main+0xae8>
10000f64:	fa442783          	lw	a5,-92(s0)
10000f68:	00178793          	addi	a5,a5,1
10000f6c:	faf42223          	sw	a5,-92(s0)
10000f70:	fa442703          	lw	a4,-92(s0)
10000f74:	f8c42783          	lw	a5,-116(s0)
10000f78:	fef746e3          	blt	a4,a5,10000f64 <main+0xadc>
10000f7c:	f8042783          	lw	a5,-128(s0)
10000f80:	02478793          	addi	a5,a5,36
10000f84:	0007a783          	lw	a5,0(a5)
10000f88:	01079713          	slli	a4,a5,0x10
10000f8c:	260007b7          	lui	a5,0x26000
10000f90:	00c78793          	addi	a5,a5,12 # 2600000c <_esram_rom+0x15ffebc4>
10000f94:	00e7a023          	sw	a4,0(a5)
10000f98:	fa042023          	sw	zero,-96(s0)
10000f9c:	0100006f          	j	10000fac <main+0xb24>
10000fa0:	fa042783          	lw	a5,-96(s0)
10000fa4:	00178793          	addi	a5,a5,1
10000fa8:	faf42023          	sw	a5,-96(s0)
10000fac:	fa042703          	lw	a4,-96(s0)
10000fb0:	f8c42783          	lw	a5,-116(s0)
10000fb4:	fef746e3          	blt	a4,a5,10000fa0 <main+0xb18>
10000fb8:	f8042783          	lw	a5,-128(s0)
10000fbc:	0007a783          	lw	a5,0(a5)
10000fc0:	01079713          	slli	a4,a5,0x10
10000fc4:	260007b7          	lui	a5,0x26000
10000fc8:	00c78793          	addi	a5,a5,12 # 2600000c <_esram_rom+0x15ffebc4>
10000fcc:	00e7a023          	sw	a4,0(a5)
10000fd0:	f8042e23          	sw	zero,-100(s0)
10000fd4:	0100006f          	j	10000fe4 <main+0xb5c>
10000fd8:	f9c42783          	lw	a5,-100(s0)
10000fdc:	00178793          	addi	a5,a5,1
10000fe0:	f8f42e23          	sw	a5,-100(s0)
10000fe4:	f9c42703          	lw	a4,-100(s0)
10000fe8:	f8c42783          	lw	a5,-116(s0)
10000fec:	fef746e3          	blt	a4,a5,10000fd8 <main+0xb50>
10000ff0:	260007b7          	lui	a5,0x26000
10000ff4:	00c78793          	addi	a5,a5,12 # 2600000c <_esram_rom+0x15ffebc4>
10000ff8:	ab530737          	lui	a4,0xab530
10000ffc:	00e7a023          	sw	a4,0(a5)
10001000:	f8042c23          	sw	zero,-104(s0)
10001004:	0100006f          	j	10001014 <main+0xb8c>
10001008:	f9842783          	lw	a5,-104(s0)
1000100c:	00178793          	addi	a5,a5,1
10001010:	f8f42c23          	sw	a5,-104(s0)
10001014:	f9842703          	lw	a4,-104(s0)
10001018:	f8c42783          	lw	a5,-116(s0)
1000101c:	fef746e3          	blt	a4,a5,10001008 <main+0xb80>
10001020:	f00047b7          	lui	a5,0xf0004
10001024:	80078793          	addi	a5,a5,-2048 # f0003800 <_esram+0xb80032c4>
10001028:	00100713          	li	a4,1
1000102c:	00e7a023          	sw	a4,0(a5)
10001030:	260007b7          	lui	a5,0x26000
10001034:	00100713          	li	a4,1
10001038:	00e7a023          	sw	a4,0(a5) # 26000000 <_esram_rom+0x15ffebb8>
1000103c:	00000013          	nop
10001040:	260007b7          	lui	a5,0x26000
10001044:	0007a703          	lw	a4,0(a5) # 26000000 <_esram_rom+0x15ffebb8>
10001048:	00100793          	li	a5,1
1000104c:	fef70ae3          	beq	a4,a5,10001040 <main+0xbb8>
10001050:	f00037b7          	lui	a5,0xf0003
10001054:	00c78713          	addi	a4,a5,12 # f000300c <_esram+0xb8002ad0>
10001058:	00000793          	li	a5,0
1000105c:	00f72023          	sw	a5,0(a4) # ab530000 <_esram+0x7352fac4>
10001060:	f0003737          	lui	a4,0xf0003
10001064:	01c70713          	addi	a4,a4,28 # f000301c <_esram+0xb8002ae0>
10001068:	00f72023          	sw	a5,0(a4)
1000106c:	f00037b7          	lui	a5,0xf0003
10001070:	00878713          	addi	a4,a5,8 # f0003008 <_esram+0xb8002acc>
10001074:	fff00793          	li	a5,-1
10001078:	00f72023          	sw	a5,0(a4)
1000107c:	f0003737          	lui	a4,0xf0003
10001080:	01870713          	addi	a4,a4,24 # f0003018 <_esram+0xb8002adc>
10001084:	00f72023          	sw	a5,0(a4)
10001088:	f00037b7          	lui	a5,0xf0003
1000108c:	00478713          	addi	a4,a5,4 # f0003004 <_esram+0xb8002ac8>
10001090:	00000793          	li	a5,0
10001094:	00f72023          	sw	a5,0(a4)
10001098:	f0003737          	lui	a4,0xf0003
1000109c:	01470713          	addi	a4,a4,20 # f0003014 <_esram+0xb8002ad8>
100010a0:	00f72023          	sw	a5,0(a4)
100010a4:	f0003737          	lui	a4,0xf0003
100010a8:	00000793          	li	a5,0
100010ac:	00f72023          	sw	a5,0(a4) # f0003000 <_esram+0xb8002ac4>
100010b0:	f0003737          	lui	a4,0xf0003
100010b4:	01070713          	addi	a4,a4,16 # f0003010 <_esram+0xb8002ad4>
100010b8:	00f72023          	sw	a5,0(a4)
100010bc:	f00037b7          	lui	a5,0xf0003
100010c0:	03878793          	addi	a5,a5,56 # f0003038 <_esram+0xb8002afc>
100010c4:	0007a023          	sw	zero,0(a5)
100010c8:	f00037b7          	lui	a5,0xf0003
100010cc:	00878713          	addi	a4,a5,8 # f0003008 <_esram+0xb8002acc>
100010d0:	00000793          	li	a5,0
100010d4:	00f72023          	sw	a5,0(a4)
100010d8:	f0003737          	lui	a4,0xf0003
100010dc:	01870713          	addi	a4,a4,24 # f0003018 <_esram+0xb8002adc>
100010e0:	00f72023          	sw	a5,0(a4)
100010e4:	260007b7          	lui	a5,0x26000
100010e8:	00c78793          	addi	a5,a5,12 # 2600000c <_esram_rom+0x15ffebc4>
100010ec:	ab510737          	lui	a4,0xab510
100010f0:	00e7a023          	sw	a4,0(a5)
100010f4:	f8042a23          	sw	zero,-108(s0)
100010f8:	0100006f          	j	10001108 <main+0xc80>
100010fc:	f9442783          	lw	a5,-108(s0)
10001100:	00178793          	addi	a5,a5,1
10001104:	f8f42a23          	sw	a5,-108(s0)
10001108:	f9442703          	lw	a4,-108(s0)
1000110c:	f8c42783          	lw	a5,-116(s0)
10001110:	fef746e3          	blt	a4,a5,100010fc <main+0xc74>
10001114:	b24ff0ef          	jal	ra,10000438 <irq_getmask>
10001118:	00050793          	mv	a5,a0
1000111c:	f8f42823          	sw	a5,-112(s0)
10001120:	f9042783          	lw	a5,-112(s0)
10001124:	0047e793          	ori	a5,a5,4
10001128:	f8f42823          	sw	a5,-112(s0)
1000112c:	f9042783          	lw	a5,-112(s0)
10001130:	00078513          	mv	a0,a5
10001134:	b2cff0ef          	jal	ra,10000460 <irq_setmask>
10001138:	00100513          	li	a0,1
1000113c:	a08ff0ef          	jal	ra,10000344 <user_irq_0_ev_enable_write>
10001140:	00000013          	nop
10001144:	07c12083          	lw	ra,124(sp)
10001148:	07812403          	lw	s0,120(sp)
1000114c:	08010113          	addi	sp,sp,128
10001150:	00008067          	ret

Disassembly of section .mprj:

10001154 <uart_write>:
10001154:	fe010113          	addi	sp,sp,-32
10001158:	00812e23          	sw	s0,28(sp)
1000115c:	02010413          	addi	s0,sp,32
10001160:	fea42623          	sw	a0,-20(s0)
10001164:	00000013          	nop
10001168:	300007b7          	lui	a5,0x30000
1000116c:	00878793          	addi	a5,a5,8 # 30000008 <_esram_rom+0x1fffebc0>
10001170:	0007a783          	lw	a5,0(a5)
10001174:	0087f793          	andi	a5,a5,8
10001178:	fe0798e3          	bnez	a5,10001168 <uart_write+0x14>
1000117c:	300007b7          	lui	a5,0x30000
10001180:	00478793          	addi	a5,a5,4 # 30000004 <_esram_rom+0x1fffebbc>
10001184:	fec42703          	lw	a4,-20(s0)
10001188:	00e7a023          	sw	a4,0(a5)
1000118c:	00000013          	nop
10001190:	01c12403          	lw	s0,28(sp)
10001194:	02010113          	addi	sp,sp,32
10001198:	00008067          	ret

1000119c <uart_write_char>:
1000119c:	fe010113          	addi	sp,sp,-32
100011a0:	00112e23          	sw	ra,28(sp)
100011a4:	00812c23          	sw	s0,24(sp)
100011a8:	02010413          	addi	s0,sp,32
100011ac:	00050793          	mv	a5,a0
100011b0:	fef407a3          	sb	a5,-17(s0)
100011b4:	fef44703          	lbu	a4,-17(s0)
100011b8:	00a00793          	li	a5,10
100011bc:	00f71663          	bne	a4,a5,100011c8 <uart_write_char+0x2c>
100011c0:	00d00513          	li	a0,13
100011c4:	fd9ff0ef          	jal	ra,1000119c <uart_write_char>
100011c8:	00000013          	nop
100011cc:	300007b7          	lui	a5,0x30000
100011d0:	00878793          	addi	a5,a5,8 # 30000008 <_esram_rom+0x1fffebc0>
100011d4:	0007a783          	lw	a5,0(a5)
100011d8:	0087f793          	andi	a5,a5,8
100011dc:	fe0798e3          	bnez	a5,100011cc <uart_write_char+0x30>
100011e0:	300007b7          	lui	a5,0x30000
100011e4:	00478793          	addi	a5,a5,4 # 30000004 <_esram_rom+0x1fffebbc>
100011e8:	fef44703          	lbu	a4,-17(s0)
100011ec:	00e7a023          	sw	a4,0(a5)
100011f0:	00000013          	nop
100011f4:	01c12083          	lw	ra,28(sp)
100011f8:	01812403          	lw	s0,24(sp)
100011fc:	02010113          	addi	sp,sp,32
10001200:	00008067          	ret

10001204 <uart_write_string>:
10001204:	fe010113          	addi	sp,sp,-32
10001208:	00112e23          	sw	ra,28(sp)
1000120c:	00812c23          	sw	s0,24(sp)
10001210:	02010413          	addi	s0,sp,32
10001214:	fea42623          	sw	a0,-20(s0)
10001218:	01c0006f          	j	10001234 <uart_write_string+0x30>
1000121c:	fec42783          	lw	a5,-20(s0)
10001220:	00178713          	addi	a4,a5,1
10001224:	fee42623          	sw	a4,-20(s0)
10001228:	0007c783          	lbu	a5,0(a5)
1000122c:	00078513          	mv	a0,a5
10001230:	f6dff0ef          	jal	ra,1000119c <uart_write_char>
10001234:	fec42783          	lw	a5,-20(s0)
10001238:	0007c783          	lbu	a5,0(a5)
1000123c:	fe0790e3          	bnez	a5,1000121c <uart_write_string+0x18>
10001240:	00000013          	nop
10001244:	00000013          	nop
10001248:	01c12083          	lw	ra,28(sp)
1000124c:	01812403          	lw	s0,24(sp)
10001250:	02010113          	addi	sp,sp,32
10001254:	00008067          	ret

10001258 <uart_read_char>:
10001258:	fe010113          	addi	sp,sp,-32
1000125c:	00812e23          	sw	s0,28(sp)
10001260:	02010413          	addi	s0,sp,32
10001264:	300007b7          	lui	a5,0x30000
10001268:	00878793          	addi	a5,a5,8 # 30000008 <_esram_rom+0x1fffebc0>
1000126c:	0007a783          	lw	a5,0(a5)
10001270:	0057d793          	srli	a5,a5,0x5
10001274:	04079263          	bnez	a5,100012b8 <uart_read_char+0x60>
10001278:	300007b7          	lui	a5,0x30000
1000127c:	00878793          	addi	a5,a5,8 # 30000008 <_esram_rom+0x1fffebc0>
10001280:	0007a783          	lw	a5,0(a5)
10001284:	0047d793          	srli	a5,a5,0x4
10001288:	02079863          	bnez	a5,100012b8 <uart_read_char+0x60>
1000128c:	fe042423          	sw	zero,-24(s0)
10001290:	0140006f          	j	100012a4 <uart_read_char+0x4c>
10001294:	00000013          	nop
10001298:	fe842783          	lw	a5,-24(s0)
1000129c:	00178793          	addi	a5,a5,1
100012a0:	fef42423          	sw	a5,-24(s0)
100012a4:	fe842783          	lw	a5,-24(s0)
100012a8:	fef056e3          	blez	a5,10001294 <uart_read_char+0x3c>
100012ac:	300007b7          	lui	a5,0x30000
100012b0:	0007a783          	lw	a5,0(a5) # 30000000 <_esram_rom+0x1fffebb8>
100012b4:	fef407a3          	sb	a5,-17(s0)
100012b8:	fef44783          	lbu	a5,-17(s0)
100012bc:	00078513          	mv	a0,a5
100012c0:	01c12403          	lw	s0,28(sp)
100012c4:	02010113          	addi	sp,sp,32
100012c8:	00008067          	ret

100012cc <uart_read>:
100012cc:	fe010113          	addi	sp,sp,-32
100012d0:	00812e23          	sw	s0,28(sp)
100012d4:	02010413          	addi	s0,sp,32
100012d8:	300007b7          	lui	a5,0x30000
100012dc:	00878793          	addi	a5,a5,8 # 30000008 <_esram_rom+0x1fffebc0>
100012e0:	0007a783          	lw	a5,0(a5)
100012e4:	0057d793          	srli	a5,a5,0x5
100012e8:	04079263          	bnez	a5,1000132c <uart_read+0x60>
100012ec:	300007b7          	lui	a5,0x30000
100012f0:	00878793          	addi	a5,a5,8 # 30000008 <_esram_rom+0x1fffebc0>
100012f4:	0007a783          	lw	a5,0(a5)
100012f8:	0047d793          	srli	a5,a5,0x4
100012fc:	02079863          	bnez	a5,1000132c <uart_read+0x60>
10001300:	fe042423          	sw	zero,-24(s0)
10001304:	0140006f          	j	10001318 <uart_read+0x4c>
10001308:	00000013          	nop
1000130c:	fe842783          	lw	a5,-24(s0)
10001310:	00178793          	addi	a5,a5,1
10001314:	fef42423          	sw	a5,-24(s0)
10001318:	fe842783          	lw	a5,-24(s0)
1000131c:	fef056e3          	blez	a5,10001308 <uart_read+0x3c>
10001320:	300007b7          	lui	a5,0x30000
10001324:	0007a783          	lw	a5,0(a5) # 30000000 <_esram_rom+0x1fffebb8>
10001328:	fef42623          	sw	a5,-20(s0)
1000132c:	fec42783          	lw	a5,-20(s0)
10001330:	00078513          	mv	a0,a5
10001334:	01c12403          	lw	s0,28(sp)
10001338:	02010113          	addi	sp,sp,32
1000133c:	00008067          	ret

Disassembly of section .data:

00000000 <taps>:
   0:	0000                	.2byte	0x0
   2:	0000                	.2byte	0x0
   4:	fff6                	.2byte	0xfff6
   6:	ffff                	.2byte	0xffff
   8:	fffffff7          	.4byte	0xfffffff7
   c:	00000017          	auipc	zero,0x0
  10:	0038                	.2byte	0x38
  12:	0000                	.2byte	0x0
  14:	0000003f 00000038 	.8byte	0x380000003f
  1c:	00000017          	auipc	zero,0x0
  20:	fffffff7          	.4byte	0xfffffff7
  24:	fff6                	.2byte	0xfff6
  26:	ffff                	.2byte	0xffff
  28:	0000                	.2byte	0x0
	...

0000002c <inputsignal>:
  2c:	0001                	.2byte	0x1
  2e:	0000                	.2byte	0x0
  30:	0002                	.2byte	0x2
  32:	0000                	.2byte	0x0
  34:	00000003          	lb	zero,0(zero) # 0 <taps>
  38:	0004                	.2byte	0x4
  3a:	0000                	.2byte	0x0
  3c:	0005                	.2byte	0x5
  3e:	0000                	.2byte	0x0
  40:	0006                	.2byte	0x6
  42:	0000                	.2byte	0x0
  44:	00000007          	.4byte	0x7
  48:	0008                	.2byte	0x8
  4a:	0000                	.2byte	0x0
  4c:	0009                	.2byte	0x9
  4e:	0000                	.2byte	0x0
  50:	000a                	.2byte	0xa
  52:	0000                	.2byte	0x0
  54:	0000000b          	.4byte	0xb

00000058 <A>:
  58:	0000                	.2byte	0x0
  5a:	0000                	.2byte	0x0
  5c:	0001                	.2byte	0x1
  5e:	0000                	.2byte	0x0
  60:	0002                	.2byte	0x2
  62:	0000                	.2byte	0x0
  64:	00000003          	lb	zero,0(zero) # 0 <taps>
  68:	0000                	.2byte	0x0
  6a:	0000                	.2byte	0x0
  6c:	0001                	.2byte	0x1
  6e:	0000                	.2byte	0x0
  70:	0002                	.2byte	0x2
  72:	0000                	.2byte	0x0
  74:	00000003          	lb	zero,0(zero) # 0 <taps>
  78:	0000                	.2byte	0x0
  7a:	0000                	.2byte	0x0
  7c:	0001                	.2byte	0x1
  7e:	0000                	.2byte	0x0
  80:	0002                	.2byte	0x2
  82:	0000                	.2byte	0x0
  84:	00000003          	lb	zero,0(zero) # 0 <taps>
  88:	0000                	.2byte	0x0
  8a:	0000                	.2byte	0x0
  8c:	0001                	.2byte	0x1
  8e:	0000                	.2byte	0x0
  90:	0002                	.2byte	0x2
  92:	0000                	.2byte	0x0
  94:	00000003          	lb	zero,0(zero) # 0 <taps>

00000098 <B>:
  98:	0001                	.2byte	0x1
  9a:	0000                	.2byte	0x0
  9c:	0002                	.2byte	0x2
  9e:	0000                	.2byte	0x0
  a0:	00000003          	lb	zero,0(zero) # 0 <taps>
  a4:	0004                	.2byte	0x4
  a6:	0000                	.2byte	0x0
  a8:	0005                	.2byte	0x5
  aa:	0000                	.2byte	0x0
  ac:	0006                	.2byte	0x6
  ae:	0000                	.2byte	0x0
  b0:	00000007          	.4byte	0x7
  b4:	0008                	.2byte	0x8
  b6:	0000                	.2byte	0x0
  b8:	0009                	.2byte	0x9
  ba:	0000                	.2byte	0x0
  bc:	000a                	.2byte	0xa
  be:	0000                	.2byte	0x0
  c0:	0000000b          	.4byte	0xb
  c4:	000c                	.2byte	0xc
  c6:	0000                	.2byte	0x0
  c8:	000d                	.2byte	0xd
  ca:	0000                	.2byte	0x0
  cc:	000e                	.2byte	0xe
  ce:	0000                	.2byte	0x0
  d0:	0000000f          	fence	unknown,unknown
  d4:	0010                	.2byte	0x10
	...

000000d8 <A_qs>:
  d8:	037d                	.2byte	0x37d
  da:	0000                	.2byte	0x0
  dc:	0028                	.2byte	0x28
  de:	0000                	.2byte	0x0
  e0:	0ca1                	.2byte	0xca1
  e2:	0000                	.2byte	0x0
  e4:	000010ab          	.4byte	0x10ab
  e8:	0a6d                	.2byte	0xa6d
  ea:	0000                	.2byte	0x0
  ec:	09ed                	.2byte	0x9ed
  ee:	0000                	.2byte	0x0
  f0:	2371                	.2byte	0x2371
  f2:	0000                	.2byte	0x0
  f4:	00001787          	.4byte	0x1787
  f8:	1631                	.2byte	0x1631
  fa:	0000                	.2byte	0x0
  fc:	120e                	.2byte	0x120e
	...

00000100 <counter>:
 100:	0000                	.2byte	0x0
 102:	ffff                	.2byte	0xffff
 104:	0000                	.2byte	0x0
	...

Disassembly of section .bss:

00000108 <inputbuffer>:
	...

00000134 <outputsignal>:
	...

00000160 <result>:
	...

Disassembly of section .mprjram:

38000000 <__mulsi3>:
38000000:	00050613          	mv	a2,a0
38000004:	00000513          	li	a0,0
38000008:	0015f693          	andi	a3,a1,1
3800000c:	00068463          	beqz	a3,38000014 <__mulsi3+0x14>
38000010:	00c50533          	add	a0,a0,a2
38000014:	0015d593          	srli	a1,a1,0x1
38000018:	00161613          	slli	a2,a2,0x1
3800001c:	fe0596e3          	bnez	a1,38000008 <__mulsi3+0x8>
38000020:	00008067          	ret

38000024 <initfir>:
38000024:	fe010113          	addi	sp,sp,-32
38000028:	00812e23          	sw	s0,28(sp)
3800002c:	02010413          	addi	s0,sp,32
38000030:	fe042623          	sw	zero,-20(s0)
38000034:	0380006f          	j	3800006c <initfir+0x48>
38000038:	10800713          	li	a4,264
3800003c:	fec42783          	lw	a5,-20(s0)
38000040:	00279793          	slli	a5,a5,0x2
38000044:	00f707b3          	add	a5,a4,a5
38000048:	0007a023          	sw	zero,0(a5)
3800004c:	13400713          	li	a4,308
38000050:	fec42783          	lw	a5,-20(s0)
38000054:	00279793          	slli	a5,a5,0x2
38000058:	00f707b3          	add	a5,a4,a5
3800005c:	0007a023          	sw	zero,0(a5)
38000060:	fec42783          	lw	a5,-20(s0)
38000064:	00178793          	addi	a5,a5,1
38000068:	fef42623          	sw	a5,-20(s0)
3800006c:	fec42703          	lw	a4,-20(s0)
38000070:	00a00793          	li	a5,10
38000074:	fce7d2e3          	bge	a5,a4,38000038 <initfir+0x14>
38000078:	00000013          	nop
3800007c:	00000013          	nop
38000080:	01c12403          	lw	s0,28(sp)
38000084:	02010113          	addi	sp,sp,32
38000088:	00008067          	ret

3800008c <firfilter>:
3800008c:	fd010113          	addi	sp,sp,-48
38000090:	02112623          	sw	ra,44(sp)
38000094:	02812423          	sw	s0,40(sp)
38000098:	03010413          	addi	s0,sp,48
3800009c:	fca42e23          	sw	a0,-36(s0)
380000a0:	00a00793          	li	a5,10
380000a4:	fef42623          	sw	a5,-20(s0)
380000a8:	03c0006f          	j	380000e4 <firfilter+0x58>
380000ac:	fec42783          	lw	a5,-20(s0)
380000b0:	fff78793          	addi	a5,a5,-1
380000b4:	10800713          	li	a4,264
380000b8:	00279793          	slli	a5,a5,0x2
380000bc:	00f707b3          	add	a5,a4,a5
380000c0:	0007a703          	lw	a4,0(a5)
380000c4:	10800693          	li	a3,264
380000c8:	fec42783          	lw	a5,-20(s0)
380000cc:	00279793          	slli	a5,a5,0x2
380000d0:	00f687b3          	add	a5,a3,a5
380000d4:	00e7a023          	sw	a4,0(a5)
380000d8:	fec42783          	lw	a5,-20(s0)
380000dc:	fff78793          	addi	a5,a5,-1
380000e0:	fef42623          	sw	a5,-20(s0)
380000e4:	fec42783          	lw	a5,-20(s0)
380000e8:	fcf042e3          	bgtz	a5,380000ac <firfilter+0x20>
380000ec:	10800793          	li	a5,264
380000f0:	fdc42703          	lw	a4,-36(s0)
380000f4:	00e7a023          	sw	a4,0(a5)
380000f8:	fe042423          	sw	zero,-24(s0)
380000fc:	fe042223          	sw	zero,-28(s0)
38000100:	0580006f          	j	38000158 <firfilter+0xcc>
38000104:	00000713          	li	a4,0
38000108:	fe442783          	lw	a5,-28(s0)
3800010c:	00279793          	slli	a5,a5,0x2
38000110:	00f707b3          	add	a5,a4,a5
38000114:	0007a683          	lw	a3,0(a5)
38000118:	10800713          	li	a4,264
3800011c:	fe442783          	lw	a5,-28(s0)
38000120:	00279793          	slli	a5,a5,0x2
38000124:	00f707b3          	add	a5,a4,a5
38000128:	0007a783          	lw	a5,0(a5)
3800012c:	00078593          	mv	a1,a5
38000130:	00068513          	mv	a0,a3
38000134:	ecdff0ef          	jal	ra,38000000 <__mulsi3>
38000138:	00050793          	mv	a5,a0
3800013c:	00078713          	mv	a4,a5
38000140:	fe842783          	lw	a5,-24(s0)
38000144:	00e787b3          	add	a5,a5,a4
38000148:	fef42423          	sw	a5,-24(s0)
3800014c:	fe442783          	lw	a5,-28(s0)
38000150:	00178793          	addi	a5,a5,1
38000154:	fef42223          	sw	a5,-28(s0)
38000158:	fe442703          	lw	a4,-28(s0)
3800015c:	00a00793          	li	a5,10
38000160:	fae7d2e3          	bge	a5,a4,38000104 <firfilter+0x78>
38000164:	fe842783          	lw	a5,-24(s0)
38000168:	00078513          	mv	a0,a5
3800016c:	02c12083          	lw	ra,44(sp)
38000170:	02812403          	lw	s0,40(sp)
38000174:	03010113          	addi	sp,sp,48
38000178:	00008067          	ret

3800017c <fir>:
3800017c:	fe010113          	addi	sp,sp,-32
38000180:	00112e23          	sw	ra,28(sp)
38000184:	00812c23          	sw	s0,24(sp)
38000188:	02010413          	addi	s0,sp,32
3800018c:	e99ff0ef          	jal	ra,38000024 <initfir>
38000190:	fe042623          	sw	zero,-20(s0)
38000194:	0440006f          	j	380001d8 <fir+0x5c>
38000198:	02c00713          	li	a4,44
3800019c:	fec42783          	lw	a5,-20(s0)
380001a0:	00279793          	slli	a5,a5,0x2
380001a4:	00f707b3          	add	a5,a4,a5
380001a8:	0007a783          	lw	a5,0(a5)
380001ac:	00078513          	mv	a0,a5
380001b0:	eddff0ef          	jal	ra,3800008c <firfilter>
380001b4:	00050693          	mv	a3,a0
380001b8:	13400713          	li	a4,308
380001bc:	fec42783          	lw	a5,-20(s0)
380001c0:	00279793          	slli	a5,a5,0x2
380001c4:	00f707b3          	add	a5,a4,a5
380001c8:	00d7a023          	sw	a3,0(a5)
380001cc:	fec42783          	lw	a5,-20(s0)
380001d0:	00178793          	addi	a5,a5,1
380001d4:	fef42623          	sw	a5,-20(s0)
380001d8:	fec42703          	lw	a4,-20(s0)
380001dc:	00a00793          	li	a5,10
380001e0:	fae7dce3          	bge	a5,a4,38000198 <fir+0x1c>
380001e4:	13400793          	li	a5,308
380001e8:	00078513          	mv	a0,a5
380001ec:	01c12083          	lw	ra,28(sp)
380001f0:	01812403          	lw	s0,24(sp)
380001f4:	02010113          	addi	sp,sp,32
380001f8:	00008067          	ret

380001fc <matmul>:
380001fc:	fd010113          	addi	sp,sp,-48
38000200:	02112623          	sw	ra,44(sp)
38000204:	02812423          	sw	s0,40(sp)
38000208:	03010413          	addi	s0,sp,48
3800020c:	fe042623          	sw	zero,-20(s0)
38000210:	fc042e23          	sw	zero,-36(s0)
38000214:	fe042623          	sw	zero,-20(s0)
38000218:	0d80006f          	j	380002f0 <matmul+0xf4>
3800021c:	fe042423          	sw	zero,-24(s0)
38000220:	0b80006f          	j	380002d8 <matmul+0xdc>
38000224:	fe042023          	sw	zero,-32(s0)
38000228:	fe042223          	sw	zero,-28(s0)
3800022c:	0700006f          	j	3800029c <matmul+0xa0>
38000230:	fec42783          	lw	a5,-20(s0)
38000234:	00279713          	slli	a4,a5,0x2
38000238:	fe442783          	lw	a5,-28(s0)
3800023c:	00f707b3          	add	a5,a4,a5
38000240:	05800713          	li	a4,88
38000244:	00279793          	slli	a5,a5,0x2
38000248:	00f707b3          	add	a5,a4,a5
3800024c:	0007a683          	lw	a3,0(a5)
38000250:	fe442783          	lw	a5,-28(s0)
38000254:	00279713          	slli	a4,a5,0x2
38000258:	fe842783          	lw	a5,-24(s0)
3800025c:	00f707b3          	add	a5,a4,a5
38000260:	09800713          	li	a4,152
38000264:	00279793          	slli	a5,a5,0x2
38000268:	00f707b3          	add	a5,a4,a5
3800026c:	0007a783          	lw	a5,0(a5)
38000270:	00078593          	mv	a1,a5
38000274:	00068513          	mv	a0,a3
38000278:	d89ff0ef          	jal	ra,38000000 <__mulsi3>
3800027c:	00050793          	mv	a5,a0
38000280:	00078713          	mv	a4,a5
38000284:	fe042783          	lw	a5,-32(s0)
38000288:	00e787b3          	add	a5,a5,a4
3800028c:	fef42023          	sw	a5,-32(s0)
38000290:	fe442783          	lw	a5,-28(s0)
38000294:	00178793          	addi	a5,a5,1
38000298:	fef42223          	sw	a5,-28(s0)
3800029c:	fe442703          	lw	a4,-28(s0)
380002a0:	00300793          	li	a5,3
380002a4:	f8e7d6e3          	bge	a5,a4,38000230 <matmul+0x34>
380002a8:	fec42783          	lw	a5,-20(s0)
380002ac:	00279713          	slli	a4,a5,0x2
380002b0:	fe842783          	lw	a5,-24(s0)
380002b4:	00f707b3          	add	a5,a4,a5
380002b8:	16000713          	li	a4,352
380002bc:	00279793          	slli	a5,a5,0x2
380002c0:	00f707b3          	add	a5,a4,a5
380002c4:	fe042703          	lw	a4,-32(s0)
380002c8:	00e7a023          	sw	a4,0(a5)
380002cc:	fe842783          	lw	a5,-24(s0)
380002d0:	00178793          	addi	a5,a5,1
380002d4:	fef42423          	sw	a5,-24(s0)
380002d8:	fe842703          	lw	a4,-24(s0)
380002dc:	00300793          	li	a5,3
380002e0:	f4e7d2e3          	bge	a5,a4,38000224 <matmul+0x28>
380002e4:	fec42783          	lw	a5,-20(s0)
380002e8:	00178793          	addi	a5,a5,1
380002ec:	fef42623          	sw	a5,-20(s0)
380002f0:	fec42703          	lw	a4,-20(s0)
380002f4:	00300793          	li	a5,3
380002f8:	f2e7d2e3          	bge	a5,a4,3800021c <matmul+0x20>
380002fc:	16000793          	li	a5,352
38000300:	00078513          	mv	a0,a5
38000304:	02c12083          	lw	ra,44(sp)
38000308:	02812403          	lw	s0,40(sp)
3800030c:	03010113          	addi	sp,sp,48
38000310:	00008067          	ret

38000314 <partition>:
38000314:	fd010113          	addi	sp,sp,-48
38000318:	02812623          	sw	s0,44(sp)
3800031c:	03010413          	addi	s0,sp,48
38000320:	fca42e23          	sw	a0,-36(s0)
38000324:	fcb42c23          	sw	a1,-40(s0)
38000328:	0d800713          	li	a4,216
3800032c:	fd842783          	lw	a5,-40(s0)
38000330:	00279793          	slli	a5,a5,0x2
38000334:	00f707b3          	add	a5,a4,a5
38000338:	0007a783          	lw	a5,0(a5)
3800033c:	fef42223          	sw	a5,-28(s0)
38000340:	fdc42783          	lw	a5,-36(s0)
38000344:	fff78793          	addi	a5,a5,-1
38000348:	fef42623          	sw	a5,-20(s0)
3800034c:	fdc42783          	lw	a5,-36(s0)
38000350:	fef42423          	sw	a5,-24(s0)
38000354:	0900006f          	j	380003e4 <partition+0xd0>
38000358:	0d800713          	li	a4,216
3800035c:	fe842783          	lw	a5,-24(s0)
38000360:	00279793          	slli	a5,a5,0x2
38000364:	00f707b3          	add	a5,a4,a5
38000368:	0007a783          	lw	a5,0(a5)
3800036c:	fe442703          	lw	a4,-28(s0)
38000370:	06e7d463          	bge	a5,a4,380003d8 <partition+0xc4>
38000374:	fec42783          	lw	a5,-20(s0)
38000378:	00178793          	addi	a5,a5,1
3800037c:	fef42623          	sw	a5,-20(s0)
38000380:	0d800713          	li	a4,216
38000384:	fec42783          	lw	a5,-20(s0)
38000388:	00279793          	slli	a5,a5,0x2
3800038c:	00f707b3          	add	a5,a4,a5
38000390:	0007a783          	lw	a5,0(a5)
38000394:	fef42023          	sw	a5,-32(s0)
38000398:	0d800713          	li	a4,216
3800039c:	fe842783          	lw	a5,-24(s0)
380003a0:	00279793          	slli	a5,a5,0x2
380003a4:	00f707b3          	add	a5,a4,a5
380003a8:	0007a703          	lw	a4,0(a5)
380003ac:	0d800693          	li	a3,216
380003b0:	fec42783          	lw	a5,-20(s0)
380003b4:	00279793          	slli	a5,a5,0x2
380003b8:	00f687b3          	add	a5,a3,a5
380003bc:	00e7a023          	sw	a4,0(a5)
380003c0:	0d800713          	li	a4,216
380003c4:	fe842783          	lw	a5,-24(s0)
380003c8:	00279793          	slli	a5,a5,0x2
380003cc:	00f707b3          	add	a5,a4,a5
380003d0:	fe042703          	lw	a4,-32(s0)
380003d4:	00e7a023          	sw	a4,0(a5)
380003d8:	fe842783          	lw	a5,-24(s0)
380003dc:	00178793          	addi	a5,a5,1
380003e0:	fef42423          	sw	a5,-24(s0)
380003e4:	fe842703          	lw	a4,-24(s0)
380003e8:	fd842783          	lw	a5,-40(s0)
380003ec:	f6f746e3          	blt	a4,a5,38000358 <partition+0x44>
380003f0:	0d800713          	li	a4,216
380003f4:	fd842783          	lw	a5,-40(s0)
380003f8:	00279793          	slli	a5,a5,0x2
380003fc:	00f707b3          	add	a5,a4,a5
38000400:	0007a703          	lw	a4,0(a5)
38000404:	fec42783          	lw	a5,-20(s0)
38000408:	00178793          	addi	a5,a5,1
3800040c:	0d800693          	li	a3,216
38000410:	00279793          	slli	a5,a5,0x2
38000414:	00f687b3          	add	a5,a3,a5
38000418:	0007a783          	lw	a5,0(a5)
3800041c:	06f75263          	bge	a4,a5,38000480 <partition+0x16c>
38000420:	fec42783          	lw	a5,-20(s0)
38000424:	00178793          	addi	a5,a5,1
38000428:	0d800713          	li	a4,216
3800042c:	00279793          	slli	a5,a5,0x2
38000430:	00f707b3          	add	a5,a4,a5
38000434:	0007a783          	lw	a5,0(a5)
38000438:	fef42023          	sw	a5,-32(s0)
3800043c:	fec42783          	lw	a5,-20(s0)
38000440:	00178793          	addi	a5,a5,1
38000444:	0d800693          	li	a3,216
38000448:	fd842703          	lw	a4,-40(s0)
3800044c:	00271713          	slli	a4,a4,0x2
38000450:	00e68733          	add	a4,a3,a4
38000454:	00072703          	lw	a4,0(a4) # ab510000 <_esram+0x7350fac4>
38000458:	0d800693          	li	a3,216
3800045c:	00279793          	slli	a5,a5,0x2
38000460:	00f687b3          	add	a5,a3,a5
38000464:	00e7a023          	sw	a4,0(a5)
38000468:	0d800713          	li	a4,216
3800046c:	fd842783          	lw	a5,-40(s0)
38000470:	00279793          	slli	a5,a5,0x2
38000474:	00f707b3          	add	a5,a4,a5
38000478:	fe042703          	lw	a4,-32(s0)
3800047c:	00e7a023          	sw	a4,0(a5)
38000480:	fec42783          	lw	a5,-20(s0)
38000484:	00178793          	addi	a5,a5,1
38000488:	00078513          	mv	a0,a5
3800048c:	02c12403          	lw	s0,44(sp)
38000490:	03010113          	addi	sp,sp,48
38000494:	00008067          	ret

38000498 <sort>:
38000498:	fd010113          	addi	sp,sp,-48
3800049c:	02112623          	sw	ra,44(sp)
380004a0:	02812423          	sw	s0,40(sp)
380004a4:	03010413          	addi	s0,sp,48
380004a8:	fca42e23          	sw	a0,-36(s0)
380004ac:	fcb42c23          	sw	a1,-40(s0)
380004b0:	fdc42703          	lw	a4,-36(s0)
380004b4:	fd842783          	lw	a5,-40(s0)
380004b8:	02f75e63          	bge	a4,a5,380004f4 <sort+0x5c>
380004bc:	fd842583          	lw	a1,-40(s0)
380004c0:	fdc42503          	lw	a0,-36(s0)
380004c4:	e51ff0ef          	jal	ra,38000314 <partition>
380004c8:	fea42623          	sw	a0,-20(s0)
380004cc:	fec42783          	lw	a5,-20(s0)
380004d0:	fff78793          	addi	a5,a5,-1
380004d4:	00078593          	mv	a1,a5
380004d8:	fdc42503          	lw	a0,-36(s0)
380004dc:	fbdff0ef          	jal	ra,38000498 <sort>
380004e0:	fec42783          	lw	a5,-20(s0)
380004e4:	00178793          	addi	a5,a5,1
380004e8:	fd842583          	lw	a1,-40(s0)
380004ec:	00078513          	mv	a0,a5
380004f0:	fa9ff0ef          	jal	ra,38000498 <sort>
380004f4:	00000013          	nop
380004f8:	02c12083          	lw	ra,44(sp)
380004fc:	02812403          	lw	s0,40(sp)
38000500:	03010113          	addi	sp,sp,48
38000504:	00008067          	ret

38000508 <qsort>:
38000508:	ff010113          	addi	sp,sp,-16
3800050c:	00112623          	sw	ra,12(sp)
38000510:	00812423          	sw	s0,8(sp)
38000514:	01010413          	addi	s0,sp,16
38000518:	00900593          	li	a1,9
3800051c:	00000513          	li	a0,0
38000520:	f79ff0ef          	jal	ra,38000498 <sort>
38000524:	0d800793          	li	a5,216
38000528:	00078513          	mv	a0,a5
3800052c:	00c12083          	lw	ra,12(sp)
38000530:	00812403          	lw	s0,8(sp)
38000534:	01010113          	addi	sp,sp,16
38000538:	00008067          	ret

Disassembly of section .riscv.attributes:

00000000 <.riscv.attributes>:
   0:	1f41                	.2byte	0x1f41
   2:	0000                	.2byte	0x0
   4:	7200                	.2byte	0x7200
   6:	7369                	.2byte	0x7369
   8:	01007663          	bgeu	zero,a6,14 <taps+0x14>
   c:	0015                	.2byte	0x15
   e:	0000                	.2byte	0x0
  10:	1004                	.2byte	0x1004
  12:	7205                	.2byte	0x7205
  14:	3376                	.2byte	0x3376
  16:	6932                	.2byte	0x6932
  18:	7032                	.2byte	0x7032
  1a:	0030                	.2byte	0x30
  1c:	0108                	.2byte	0x108
  1e:	0b0a                	.2byte	0xb0a

Disassembly of section .comment:

00000000 <.comment>:
   0:	3a434347          	.4byte	0x3a434347
   4:	2820                	.2byte	0x2820
   6:	61653167          	.4byte	0x61653167
   a:	3739                	.2byte	0x3739
   c:	6538                	.2byte	0x6538
   e:	36363033          	.4byte	0x36363033
  12:	2029                	.2byte	0x2029
  14:	3231                	.2byte	0x3231
  16:	312e                	.2byte	0x312e
  18:	302e                	.2byte	0x302e
	...

Disassembly of section .debug_line:

00000000 <.debug_line>:
       0:	0206                	.2byte	0x206
       2:	0000                	.2byte	0x0
       4:	0005                	.2byte	0x5
       6:	0004                	.2byte	0x4
       8:	002e                	.2byte	0x2e
       a:	0000                	.2byte	0x0
       c:	0101                	.2byte	0x101
       e:	fb01                	.2byte	0xfb01
      10:	0d0e                	.2byte	0xd0e
      12:	0100                	.2byte	0x100
      14:	0101                	.2byte	0x101
      16:	0001                	.2byte	0x1
      18:	0000                	.2byte	0x0
      1a:	0001                	.2byte	0x1
      1c:	0100                	.2byte	0x100
      1e:	0101                	.2byte	0x101
      20:	021f 0000 0000      	.byte	0x1f, 0x02, 0x00, 0x00, 0x00, 0x00
      26:	003a                	.2byte	0x3a
      28:	0000                	.2byte	0x0
      2a:	0102                	.2byte	0x102
      2c:	021f 020f 0049      	.byte	0x1f, 0x02, 0x0f, 0x02, 0x49, 0x00
      32:	0000                	.2byte	0x0
      34:	4901                	.2byte	0x4901
      36:	0000                	.2byte	0x0
      38:	0100                	.2byte	0x100
      3a:	0500                	.2byte	0x500
      3c:	0002                	.2byte	0x2
      3e:	0000                	.2byte	0x0
      40:	1710                	.2byte	0x1710
      42:	04090103          	lb	sp,64(s2)
      46:	0100                	.2byte	0x100
      48:	04090103          	lb	sp,64(s2)
      4c:	0100                	.2byte	0x100
      4e:	04090103          	lb	sp,64(s2)
      52:	0100                	.2byte	0x100
      54:	04090103          	lb	sp,64(s2)
      58:	0100                	.2byte	0x100
      5a:	04090103          	lb	sp,64(s2)
      5e:	0100                	.2byte	0x100
      60:	04090103          	lb	sp,64(s2)
      64:	0100                	.2byte	0x100
      66:	04090103          	lb	sp,64(s2)
      6a:	0100                	.2byte	0x100
      6c:	04090403          	lb	s0,64(s2)
      70:	0100                	.2byte	0x100
      72:	04090103          	lb	sp,64(s2)
      76:	0100                	.2byte	0x100
      78:	04090103          	lb	sp,64(s2)
      7c:	0100                	.2byte	0x100
      7e:	04090103          	lb	sp,64(s2)
      82:	0100                	.2byte	0x100
      84:	04090103          	lb	sp,64(s2)
      88:	0100                	.2byte	0x100
      8a:	04090103          	lb	sp,64(s2)
      8e:	0100                	.2byte	0x100
      90:	04090103          	lb	sp,64(s2)
      94:	0100                	.2byte	0x100
      96:	04090103          	lb	sp,64(s2)
      9a:	0100                	.2byte	0x100
      9c:	04090103          	lb	sp,64(s2)
      a0:	0100                	.2byte	0x100
      a2:	04090103          	lb	sp,64(s2)
      a6:	0100                	.2byte	0x100
      a8:	04090103          	lb	sp,64(s2)
      ac:	0100                	.2byte	0x100
      ae:	04090103          	lb	sp,64(s2)
      b2:	0100                	.2byte	0x100
      b4:	04090103          	lb	sp,64(s2)
      b8:	0100                	.2byte	0x100
      ba:	04090103          	lb	sp,64(s2)
      be:	0100                	.2byte	0x100
      c0:	04090103          	lb	sp,64(s2)
      c4:	0100                	.2byte	0x100
      c6:	04090103          	lb	sp,64(s2)
      ca:	0100                	.2byte	0x100
      cc:	04090103          	lb	sp,64(s2)
      d0:	0100                	.2byte	0x100
      d2:	04090103          	lb	sp,64(s2)
      d6:	0100                	.2byte	0x100
      d8:	04090103          	lb	sp,64(s2)
      dc:	0100                	.2byte	0x100
      de:	04090103          	lb	sp,64(s2)
      e2:	0100                	.2byte	0x100
      e4:	04090103          	lb	sp,64(s2)
      e8:	0100                	.2byte	0x100
      ea:	04090103          	lb	sp,64(s2)
      ee:	0100                	.2byte	0x100
      f0:	04090103          	lb	sp,64(s2)
      f4:	0100                	.2byte	0x100
      f6:	04090103          	lb	sp,64(s2)
      fa:	0100                	.2byte	0x100
      fc:	04090103          	lb	sp,64(s2)
     100:	0100                	.2byte	0x100
     102:	04090103          	lb	sp,64(s2)
     106:	0100                	.2byte	0x100
     108:	04090103          	lb	sp,64(s2)
     10c:	0100                	.2byte	0x100
     10e:	04090103          	lb	sp,64(s2)
     112:	0100                	.2byte	0x100
     114:	04090103          	lb	sp,64(s2)
     118:	0100                	.2byte	0x100
     11a:	04090103          	lb	sp,64(s2)
     11e:	0100                	.2byte	0x100
     120:	04090103          	lb	sp,64(s2)
     124:	0100                	.2byte	0x100
     126:	04090103          	lb	sp,64(s2)
     12a:	0100                	.2byte	0x100
     12c:	04090103          	lb	sp,64(s2)
     130:	0100                	.2byte	0x100
     132:	04090103          	lb	sp,64(s2)
     136:	0100                	.2byte	0x100
     138:	04090103          	lb	sp,64(s2)
     13c:	0100                	.2byte	0x100
     13e:	04090103          	lb	sp,64(s2)
     142:	0100                	.2byte	0x100
     144:	04090503          	lb	a0,64(s2)
     148:	0100                	.2byte	0x100
     14a:	04090103          	lb	sp,64(s2)
     14e:	0100                	.2byte	0x100
     150:	08090103          	lb	sp,128(s2)
     154:	0100                	.2byte	0x100
     156:	04090303          	lb	t1,64(s2)
     15a:	0100                	.2byte	0x100
     15c:	08090103          	lb	sp,128(s2)
     160:	0100                	.2byte	0x100
     162:	08090103          	lb	sp,128(s2)
     166:	0100                	.2byte	0x100
     168:	08090203          	lb	tp,128(s2)
     16c:	0100                	.2byte	0x100
     16e:	04090103          	lb	sp,64(s2)
     172:	0100                	.2byte	0x100
     174:	04090103          	lb	sp,64(s2)
     178:	0100                	.2byte	0x100
     17a:	04090103          	lb	sp,64(s2)
     17e:	0100                	.2byte	0x100
     180:	04090103          	lb	sp,64(s2)
     184:	0100                	.2byte	0x100
     186:	04090103          	lb	sp,64(s2)
     18a:	0100                	.2byte	0x100
     18c:	04090403          	lb	s0,64(s2)
     190:	0100                	.2byte	0x100
     192:	04090103          	lb	sp,64(s2)
     196:	0100                	.2byte	0x100
     198:	04090103          	lb	sp,64(s2)
     19c:	0100                	.2byte	0x100
     19e:	08090203          	lb	tp,128(s2)
     1a2:	0100                	.2byte	0x100
     1a4:	04090103          	lb	sp,64(s2)
     1a8:	0100                	.2byte	0x100
     1aa:	04090103          	lb	sp,64(s2)
     1ae:	0100                	.2byte	0x100
     1b0:	04090103          	lb	sp,64(s2)
     1b4:	0100                	.2byte	0x100
     1b6:	04090103          	lb	sp,64(s2)
     1ba:	0100                	.2byte	0x100
     1bc:	04090103          	lb	sp,64(s2)
     1c0:	0100                	.2byte	0x100
     1c2:	04090403          	lb	s0,64(s2)
     1c6:	0100                	.2byte	0x100
     1c8:	04090103          	lb	sp,64(s2)
     1cc:	0100                	.2byte	0x100
     1ce:	04090203          	lb	tp,64(s2)
     1d2:	0100                	.2byte	0x100
     1d4:	04090103          	lb	sp,64(s2)
     1d8:	0100                	.2byte	0x100
     1da:	04090103          	lb	sp,64(s2)
     1de:	0100                	.2byte	0x100
     1e0:	04090203          	lb	tp,64(s2)
     1e4:	0100                	.2byte	0x100
     1e6:	04090403          	lb	s0,64(s2)
     1ea:	0100                	.2byte	0x100
     1ec:	08090103          	lb	sp,128(s2)
     1f0:	0100                	.2byte	0x100
     1f2:	04090303          	lb	t1,64(s2)
     1f6:	0100                	.2byte	0x100
     1f8:	04090303          	lb	t1,64(s2)
     1fc:	0100                	.2byte	0x100
     1fe:	04090203          	lb	tp,64(s2)
     202:	0100                	.2byte	0x100
     204:	0409                	.2byte	0x409
     206:	0000                	.2byte	0x0
     208:	0101                	.2byte	0x101
     20a:	014d                	.2byte	0x14d
     20c:	0000                	.2byte	0x0
     20e:	0005                	.2byte	0x5
     210:	0004                	.2byte	0x4
     212:	0000004f          	.4byte	0x4f
     216:	0101                	.2byte	0x101
     218:	fb01                	.2byte	0xfb01
     21a:	0d0e                	.2byte	0xd0e
     21c:	0100                	.2byte	0x100
     21e:	0101                	.2byte	0x101
     220:	0001                	.2byte	0x1
     222:	0000                	.2byte	0x0
     224:	0001                	.2byte	0x1
     226:	0100                	.2byte	0x100
     228:	0101                	.2byte	0x101
     22a:	041f 0000 0000      	.byte	0x1f, 0x04, 0x00, 0x00, 0x00, 0x00
     230:	003a                	.2byte	0x3a
     232:	0000                	.2byte	0x0
     234:	0069                	.2byte	0x69
     236:	0000                	.2byte	0x0
     238:	0000007b          	.4byte	0x7b
     23c:	0102                	.2byte	0x102
     23e:	021f 070f 0063      	.byte	0x1f, 0x02, 0x0f, 0x07, 0x63, 0x00
     244:	0000                	.2byte	0x0
     246:	b101                	.2byte	0xb101
     248:	0000                	.2byte	0x0
     24a:	0100                	.2byte	0x100
     24c:	00ba                	.2byte	0xba
     24e:	0000                	.2byte	0x0
     250:	c302                	.2byte	0xc302
     252:	0000                	.2byte	0x0
     254:	0100                	.2byte	0x100
     256:	00c9                	.2byte	0xc9
     258:	0000                	.2byte	0x0
     25a:	6301                	.2byte	0x6301
     25c:	0000                	.2byte	0x0
     25e:	0100                	.2byte	0x100
     260:	000000d3          	.4byte	0xd3
     264:	00010503          	lb	a0,0(sp)
     268:	0205                	.2byte	0x205
     26a:	0148                	.2byte	0x148
     26c:	1000                	.2byte	0x1000
     26e:	03010e03          	lb	t3,48(sp)
     272:	000c090b          	.4byte	0xc090b
     276:	0301                	.2byte	0x301
     278:	00100903          	lb	s2,1(zero) # 1 <taps+0x1>
     27c:	0301                	.2byte	0x301
     27e:	0904                	.2byte	0x904
     280:	000c                	.2byte	0xc
     282:	0401                	.2byte	0x401
     284:	0302                	.2byte	0x302
     286:	0900                	.2byte	0x900
     288:	0010                	.2byte	0x10
     28a:	0501                	.2byte	0x501
     28c:	0305                	.2byte	0x305
     28e:	0901                	.2byte	0x901
     290:	0014                	.2byte	0x14
     292:	0501                	.2byte	0x501
     294:	0320                	.2byte	0x320
     296:	0900                	.2byte	0x900
     298:	0004                	.2byte	0x4
     29a:	0501                	.2byte	0x501
     29c:	0301                	.2byte	0x301
     29e:	0901                	.2byte	0x901
     2a0:	0008                	.2byte	0x8
     2a2:	0401                	.2byte	0x401
     2a4:	033c0503          	lb	a0,51(s8)
     2a8:	100905e7          	jalr	a1,256(s2)
     2ac:	0100                	.2byte	0x100
     2ae:	0205                	.2byte	0x205
     2b0:	14090103          	lb	sp,320(s2)
     2b4:	0100                	.2byte	0x100
     2b6:	0105                	.2byte	0x105
     2b8:	10090103          	lb	sp,256(s2)
     2bc:	0100                	.2byte	0x100
     2be:	0404                	.2byte	0x404
     2c0:	097a8b03          	lb	s6,151(s5)
     2c4:	0014                	.2byte	0x14
     2c6:	0501                	.2byte	0x501
     2c8:	0302                	.2byte	0x302
     2ca:	0902                	.2byte	0x902
     2cc:	000c                	.2byte	0xc
     2ce:	0501                	.2byte	0x501
     2d0:	0309                	.2byte	0x309
     2d2:	0901                	.2byte	0x901
     2d4:	0008                	.2byte	0x8
     2d6:	0501                	.2byte	0x501
     2d8:	0301                	.2byte	0x301
     2da:	0901                	.2byte	0x901
     2dc:	0004                	.2byte	0x4
     2de:	0301                	.2byte	0x301
     2e0:	0908                	.2byte	0x908
     2e2:	0010                	.2byte	0x10
     2e4:	0501                	.2byte	0x501
     2e6:	0302                	.2byte	0x302
     2e8:	0902                	.2byte	0x902
     2ea:	000c                	.2byte	0xc
     2ec:	0501                	.2byte	0x501
     2ee:	0309                	.2byte	0x309
     2f0:	0901                	.2byte	0x901
     2f2:	0008                	.2byte	0x8
     2f4:	0501                	.2byte	0x501
     2f6:	0301                	.2byte	0x301
     2f8:	0901                	.2byte	0x901
     2fa:	0004                	.2byte	0x4
     2fc:	0401                	.2byte	0x401
     2fe:	0305                	.2byte	0x305
     300:	0971                	.2byte	0x971
     302:	0010                	.2byte	0x10
     304:	0501                	.2byte	0x501
     306:	0315                	.2byte	0x315
     308:	0908                	.2byte	0x908
     30a:	0014                	.2byte	0x14
     30c:	0501                	.2byte	0x501
     30e:	0325                	.2byte	0x325
     310:	0900                	.2byte	0x900
     312:	0008                	.2byte	0x8
     314:	0501                	.2byte	0x501
     316:	030e                	.2byte	0x30e
     318:	0900                	.2byte	0x900
     31a:	0008                	.2byte	0x8
     31c:	0501                	.2byte	0x501
     31e:	0903030f          	.4byte	0x903030f
     322:	0008                	.2byte	0x8
     324:	0501                	.2byte	0x501
     326:	0308                	.2byte	0x308
     328:	0900                	.2byte	0x900
     32a:	0008                	.2byte	0x8
     32c:	0501                	.2byte	0x501
     32e:	0309                	.2byte	0x309
     330:	0901                	.2byte	0x901
     332:	0004                	.2byte	0x4
     334:	0501                	.2byte	0x501
     336:	0901030f          	.4byte	0x901030f
     33a:	0008                	.2byte	0x8
     33c:	0501                	.2byte	0x501
     33e:	0309                	.2byte	0x309
     340:	0902                	.2byte	0x902
     342:	0008                	.2byte	0x8
     344:	0501                	.2byte	0x501
     346:	0305                	.2byte	0x305
     348:	0905                	.2byte	0x905
     34a:	0008                	.2byte	0x8
     34c:	0501                	.2byte	0x501
     34e:	0301                	.2byte	0x301
     350:	0902                	.2byte	0x902
     352:	0008                	.2byte	0x8
     354:	0901                	.2byte	0x901
     356:	0014                	.2byte	0x14
     358:	0100                	.2byte	0x100
     35a:	3301                	.2byte	0x3301
     35c:	0006                	.2byte	0x6
     35e:	0500                	.2byte	0x500
     360:	0400                	.2byte	0x400
     362:	4100                	.2byte	0x4100
     364:	0000                	.2byte	0x0
     366:	0100                	.2byte	0x100
     368:	0101                	.2byte	0x101
     36a:	000d0efb          	.4byte	0xd0efb
     36e:	0101                	.2byte	0x101
     370:	0101                	.2byte	0x101
     372:	0000                	.2byte	0x0
     374:	0100                	.2byte	0x100
     376:	0000                	.2byte	0x0
     378:	0101                	.2byte	0x101
     37a:	1f01                	.2byte	0x1f01
     37c:	00000003          	lb	zero,0(zero) # 0 <taps>
     380:	3a00                	.2byte	0x3a00
     382:	0000                	.2byte	0x0
     384:	7b00                	.2byte	0x7b00
     386:	0000                	.2byte	0x0
     388:	0200                	.2byte	0x200
     38a:	1f01                	.2byte	0x1f01
     38c:	0f02                	.2byte	0xf02
     38e:	e005                	.2byte	0xe005
     390:	0000                	.2byte	0x0
     392:	0000                	.2byte	0x0
     394:	00b1                	.2byte	0xb1
     396:	0000                	.2byte	0x0
     398:	e001                	.2byte	0xe001
     39a:	0000                	.2byte	0x0
     39c:	0000                	.2byte	0x0
     39e:	00ee                	.2byte	0xee
     3a0:	0000                	.2byte	0x0
     3a2:	d300                	.2byte	0xd300
     3a4:	0000                	.2byte	0x0
     3a6:	0200                	.2byte	0x200
     3a8:	0105                	.2byte	0x105
     3aa:	0500                	.2byte	0x500
     3ac:	a402                	.2byte	0xa402
     3ae:	0002                	.2byte	0x2
     3b0:	0310                	.2byte	0x310
     3b2:	010e                	.2byte	0x10e
     3b4:	0c090b03          	lb	s6,192(s2)
     3b8:	0100                	.2byte	0x100
     3ba:	10090303          	lb	t1,256(s2)
     3be:	0100                	.2byte	0x100
     3c0:	0c090403          	lb	s0,192(s2)
     3c4:	0100                	.2byte	0x100
     3c6:	1009                	.2byte	0x1009
     3c8:	0000                	.2byte	0x0
     3ca:	0101                	.2byte	0x101
     3cc:	0204                	.2byte	0x204
     3ce:	0105                	.2byte	0x105
     3d0:	0500                	.2byte	0x500
     3d2:	5402                	.2byte	0x5402
     3d4:	0011                	.2byte	0x11
     3d6:	1a10                	.2byte	0x1a10
     3d8:	0a05                	.2byte	0xa05
     3da:	10090103          	lb	sp,256(s2)
     3de:	0100                	.2byte	0x100
     3e0:	0e05                	.2byte	0xe05
     3e2:	0200                	.2byte	0x200
     3e4:	0104                	.2byte	0x104
     3e6:	04090003          	lb	zero,64(s2)
     3ea:	0100                	.2byte	0x100
     3ec:	0b05                	.2byte	0xb05
     3ee:	0200                	.2byte	0x200
     3f0:	0104                	.2byte	0x104
     3f2:	0c090003          	lb	zero,192(s2)
     3f6:	0100                	.2byte	0x100
     3f8:	0605                	.2byte	0x605
     3fa:	08090103          	lb	sp,128(s2)
     3fe:	0100                	.2byte	0x100
     400:	2705                	.2byte	0x2705
     402:	08090003          	lb	zero,128(s2)
     406:	0100                	.2byte	0x100
     408:	0105                	.2byte	0x105
     40a:	08090103          	lb	sp,128(s2)
     40e:	0100                	.2byte	0x100
     410:	10090303          	lb	t1,256(s2)
     414:	0100                	.2byte	0x100
     416:	0505                	.2byte	0x505
     418:	18090103          	lb	sp,384(s2)
     41c:	0100                	.2byte	0x100
     41e:	0305                	.2byte	0x305
     420:	0c090103          	lb	sp,192(s2)
     424:	0100                	.2byte	0x100
     426:	0a05                	.2byte	0xa05
     428:	08090303          	lb	t1,128(s2)
     42c:	0100                	.2byte	0x100
     42e:	0e05                	.2byte	0xe05
     430:	0200                	.2byte	0x200
     432:	0104                	.2byte	0x104
     434:	04090003          	lb	zero,64(s2)
     438:	0100                	.2byte	0x100
     43a:	0b05                	.2byte	0xb05
     43c:	0200                	.2byte	0x200
     43e:	0104                	.2byte	0x104
     440:	0c090003          	lb	zero,192(s2)
     444:	0100                	.2byte	0x100
     446:	0605                	.2byte	0x605
     448:	08090103          	lb	sp,128(s2)
     44c:	0100                	.2byte	0x100
     44e:	2705                	.2byte	0x2705
     450:	08090003          	lb	zero,128(s2)
     454:	0100                	.2byte	0x100
     456:	0105                	.2byte	0x105
     458:	08090103          	lb	sp,128(s2)
     45c:	0100                	.2byte	0x100
     45e:	14090303          	lb	t1,320(s2)
     462:	0100                	.2byte	0x100
     464:	0b05                	.2byte	0xb05
     466:	14090103          	lb	sp,320(s2)
     46a:	0100                	.2byte	0x100
     46c:	1c05                	.2byte	0x1c05
     46e:	04090103          	lb	sp,64(s2)
     472:	0100                	.2byte	0x100
     474:	0905                	.2byte	0x905
     476:	0c090003          	lb	zero,192(s2)
     47a:	0100                	.2byte	0x100
     47c:	0c05                	.2byte	0xc05
     47e:	0c097f03          	.4byte	0xc097f03
     482:	0100                	.2byte	0x100
     484:	0105                	.2byte	0x105
     486:	0c090203          	lb	tp,192(s2)
     48a:	0100                	.2byte	0x100
     48c:	18090403          	lb	s0,384(s2)
     490:	0100                	.2byte	0x100
     492:	0c05                	.2byte	0xc05
     494:	0c090203          	lb	tp,192(s2)
     498:	0100                	.2byte	0x100
     49a:	2c05                	.2byte	0x2c05
     49c:	0c090003          	lb	zero,192(s2)
     4a0:	0100                	.2byte	0x100
     4a2:	0705                	.2byte	0x705
     4a4:	04090003          	lb	zero,64(s2)
     4a8:	0100                	.2byte	0x100
     4aa:	4305                	.2byte	0x4305
     4ac:	0200                	.2byte	0x200
     4ae:	0104                	.2byte	0x104
     4b0:	04090003          	lb	zero,64(s2)
     4b4:	0100                	.2byte	0x100
     4b6:	6305                	.2byte	0x6305
     4b8:	0200                	.2byte	0x200
     4ba:	0104                	.2byte	0x104
     4bc:	0c090003          	lb	zero,192(s2)
     4c0:	0100                	.2byte	0x100
     4c2:	3c05                	.2byte	0x3c05
     4c4:	0200                	.2byte	0x200
     4c6:	0104                	.2byte	0x104
     4c8:	04090003          	lb	zero,64(s2)
     4cc:	0100                	.2byte	0x100
     4ce:	1105                	.2byte	0x1105
     4d0:	04090103          	lb	sp,64(s2)
     4d4:	0100                	.2byte	0x100
     4d6:	0905                	.2byte	0x905
     4d8:	04090003          	lb	zero,64(s2)
     4dc:	0100                	.2byte	0x100
     4de:	0d05                	.2byte	0xd05
     4e0:	0200                	.2byte	0x200
     4e2:	0304                	.2byte	0x304
     4e4:	04090103          	lb	sp,64(s2)
     4e8:	0100                	.2byte	0x100
     4ea:	2005                	.2byte	0x2005
     4ec:	0200                	.2byte	0x200
     4ee:	0304                	.2byte	0x304
     4f0:	04097f03          	.4byte	0x4097f03
     4f4:	0100                	.2byte	0x100
     4f6:	1a05                	.2byte	0x1a05
     4f8:	0200                	.2byte	0x200
     4fa:	0104                	.2byte	0x104
     4fc:	0c090003          	lb	zero,192(s2)
     500:	0100                	.2byte	0x100
     502:	1005                	.2byte	0x1005
     504:	08090303          	lb	t1,128(s2)
     508:	0100                	.2byte	0x100
     50a:	0d05                	.2byte	0xd05
     50c:	08090003          	lb	zero,128(s2)
     510:	0100                	.2byte	0x100
     512:	0c05                	.2byte	0xc05
     514:	04090303          	lb	t1,64(s2)
     518:	0100                	.2byte	0x100
     51a:	0105                	.2byte	0x105
     51c:	04090103          	lb	sp,64(s2)
     520:	0100                	.2byte	0x100
     522:	10090303          	lb	t1,256(s2)
     526:	0100                	.2byte	0x100
     528:	0c05                	.2byte	0xc05
     52a:	0c090203          	lb	tp,192(s2)
     52e:	0100                	.2byte	0x100
     530:	2c05                	.2byte	0x2c05
     532:	0c090003          	lb	zero,192(s2)
     536:	0100                	.2byte	0x100
     538:	0705                	.2byte	0x705
     53a:	04090003          	lb	zero,64(s2)
     53e:	0100                	.2byte	0x100
     540:	4305                	.2byte	0x4305
     542:	0200                	.2byte	0x200
     544:	0104                	.2byte	0x104
     546:	04090003          	lb	zero,64(s2)
     54a:	0100                	.2byte	0x100
     54c:	6305                	.2byte	0x6305
     54e:	0200                	.2byte	0x200
     550:	0104                	.2byte	0x104
     552:	0c090003          	lb	zero,192(s2)
     556:	0100                	.2byte	0x100
     558:	3c05                	.2byte	0x3c05
     55a:	0200                	.2byte	0x200
     55c:	0104                	.2byte	0x104
     55e:	04090003          	lb	zero,64(s2)
     562:	0100                	.2byte	0x100
     564:	1105                	.2byte	0x1105
     566:	04090103          	lb	sp,64(s2)
     56a:	0100                	.2byte	0x100
     56c:	0905                	.2byte	0x905
     56e:	04090003          	lb	zero,64(s2)
     572:	0100                	.2byte	0x100
     574:	0d05                	.2byte	0xd05
     576:	0200                	.2byte	0x200
     578:	0304                	.2byte	0x304
     57a:	04090103          	lb	sp,64(s2)
     57e:	0100                	.2byte	0x100
     580:	2005                	.2byte	0x2005
     582:	0200                	.2byte	0x200
     584:	0304                	.2byte	0x304
     586:	04097f03          	.4byte	0x4097f03
     58a:	0100                	.2byte	0x100
     58c:	1a05                	.2byte	0x1a05
     58e:	0200                	.2byte	0x200
     590:	0104                	.2byte	0x104
     592:	0c090003          	lb	zero,192(s2)
     596:	0100                	.2byte	0x100
     598:	1005                	.2byte	0x1005
     59a:	08090303          	lb	t1,128(s2)
     59e:	0100                	.2byte	0x100
     5a0:	0d05                	.2byte	0xd05
     5a2:	08090003          	lb	zero,128(s2)
     5a6:	0100                	.2byte	0x100
     5a8:	0c05                	.2byte	0xc05
     5aa:	04090303          	lb	t1,64(s2)
     5ae:	0100                	.2byte	0x100
     5b0:	0105                	.2byte	0x105
     5b2:	04090103          	lb	sp,64(s2)
     5b6:	0100                	.2byte	0x100
     5b8:	1009                	.2byte	0x1009
     5ba:	0000                	.2byte	0x0
     5bc:	0101                	.2byte	0x101
     5be:	0204                	.2byte	0x204
     5c0:	3d05                	.2byte	0x3d05
     5c2:	0500                	.2byte	0x500
     5c4:	2402                	.2byte	0x2402
     5c6:	0000                	.2byte	0x0
     5c8:	0338                	.2byte	0x338
     5ca:	013a                	.2byte	0x13a
     5cc:	0a05                	.2byte	0xa05
     5ce:	0c090103          	lb	sp,192(s2)
     5d2:	0100                	.2byte	0x100
     5d4:	0205                	.2byte	0x205
     5d6:	04090003          	lb	zero,64(s2)
     5da:	0100                	.2byte	0x100
     5dc:	1205                	.2byte	0x1205
     5de:	0200                	.2byte	0x200
     5e0:	0304                	.2byte	0x304
     5e2:	04090103          	lb	sp,64(s2)
     5e6:	0100                	.2byte	0x100
     5e8:	1305                	.2byte	0x1305
     5ea:	0200                	.2byte	0x200
     5ec:	0304                	.2byte	0x304
     5ee:	14090103          	lb	sp,320(s2)
     5f2:	0100                	.2byte	0x100
     5f4:	1605                	.2byte	0x1605
     5f6:	0200                	.2byte	0x200
     5f8:	0304                	.2byte	0x304
     5fa:	14097e03          	.4byte	0x14097e03
     5fe:	0100                	.2byte	0x100
     600:	1005                	.2byte	0x1005
     602:	0200                	.2byte	0x200
     604:	0104                	.2byte	0x104
     606:	0c090003          	lb	zero,192(s2)
     60a:	0100                	.2byte	0x100
     60c:	0105                	.2byte	0x105
     60e:	0c090403          	lb	s0,192(s2)
     612:	0100                	.2byte	0x100
     614:	4c05                	.2byte	0x4c05
     616:	14090203          	lb	tp,320(s2)
     61a:	0100                	.2byte	0x100
     61c:	0a05                	.2byte	0xa05
     61e:	14090103          	lb	sp,320(s2)
     622:	0100                	.2byte	0x100
     624:	0205                	.2byte	0x205
     626:	08090003          	lb	zero,128(s2)
     62a:	0100                	.2byte	0x100
     62c:	2105                	.2byte	0x2105
     62e:	0200                	.2byte	0x200
     630:	0304                	.2byte	0x304
     632:	04090103          	lb	sp,64(s2)
     636:	0100                	.2byte	0x100
     638:	1f05                	.2byte	0x1f05
     63a:	0200                	.2byte	0x200
     63c:	0304                	.2byte	0x304
     63e:	08090003          	lb	zero,128(s2)
     642:	0100                	.2byte	0x100
     644:	1205                	.2byte	0x1205
     646:	0200                	.2byte	0x200
     648:	0304                	.2byte	0x304
     64a:	10090003          	lb	zero,256(s2)
     64e:	0100                	.2byte	0x100
     650:	1905                	.2byte	0x1905
     652:	0200                	.2byte	0x200
     654:	0304                	.2byte	0x304
     656:	14097f03          	.4byte	0x14097f03
     65a:	0100                	.2byte	0x100
     65c:	1405                	.2byte	0x1405
     65e:	0200                	.2byte	0x200
     660:	0104                	.2byte	0x104
     662:	0c090003          	lb	zero,192(s2)
     666:	0100                	.2byte	0x100
     668:	1105                	.2byte	0x1105
     66a:	08090303          	lb	t1,128(s2)
     66e:	0100                	.2byte	0x100
     670:	0605                	.2byte	0x605
     672:	0c090203          	lb	tp,192(s2)
     676:	0100                	.2byte	0x100
     678:	0a05                	.2byte	0xa05
     67a:	04090103          	lb	sp,64(s2)
     67e:	0100                	.2byte	0x100
     680:	0205                	.2byte	0x205
     682:	04090003          	lb	zero,64(s2)
     686:	0100                	.2byte	0x100
     688:	1705                	.2byte	0x1705
     68a:	0200                	.2byte	0x200
     68c:	0304                	.2byte	0x304
     68e:	04090103          	lb	sp,64(s2)
     692:	0100                	.2byte	0x100
     694:	2605                	.2byte	0x2605
     696:	0200                	.2byte	0x200
     698:	0304                	.2byte	0x304
     69a:	14090003          	lb	zero,320(s2)
     69e:	0100                	.2byte	0x100
     6a0:	1a05                	.2byte	0x1a05
     6a2:	0200                	.2byte	0x200
     6a4:	0304                	.2byte	0x304
     6a6:	14090003          	lb	zero,320(s2)
     6aa:	0100                	.2byte	0x100
     6ac:	1005                	.2byte	0x1005
     6ae:	0200                	.2byte	0x200
     6b0:	0304                	.2byte	0x304
     6b2:	14090003          	lb	zero,320(s2)
     6b6:	0100                	.2byte	0x100
     6b8:	1605                	.2byte	0x1605
     6ba:	0200                	.2byte	0x200
     6bc:	0304                	.2byte	0x304
     6be:	0c097f03          	.4byte	0xc097f03
     6c2:	0100                	.2byte	0x100
     6c4:	1005                	.2byte	0x1005
     6c6:	0200                	.2byte	0x200
     6c8:	0104                	.2byte	0x104
     6ca:	0c090003          	lb	zero,192(s2)
     6ce:	0100                	.2byte	0x100
     6d0:	0905                	.2byte	0x905
     6d2:	0c090303          	lb	t1,192(s2)
     6d6:	0100                	.2byte	0x100
     6d8:	0105                	.2byte	0x105
     6da:	04090103          	lb	sp,64(s2)
     6de:	0100                	.2byte	0x100
     6e0:	3805                	.2byte	0x3805
     6e2:	14090203          	lb	tp,320(s2)
     6e6:	0100                	.2byte	0x100
     6e8:	0205                	.2byte	0x205
     6ea:	10090103          	lb	sp,256(s2)
     6ee:	0100                	.2byte	0x100
     6f0:	0a05                	.2byte	0xa05
     6f2:	04090103          	lb	sp,64(s2)
     6f6:	0100                	.2byte	0x100
     6f8:	0205                	.2byte	0x205
     6fa:	04090003          	lb	zero,64(s2)
     6fe:	0100                	.2byte	0x100
     700:	1505                	.2byte	0x1505
     702:	0200                	.2byte	0x200
     704:	0304                	.2byte	0x304
     706:	04090103          	lb	sp,64(s2)
     70a:	0100                	.2byte	0x100
     70c:	1305                	.2byte	0x1305
     70e:	0200                	.2byte	0x200
     710:	0304                	.2byte	0x304
     712:	20090003          	lb	zero,512(s2)
     716:	0100                	.2byte	0x100
     718:	1605                	.2byte	0x1605
     71a:	0200                	.2byte	0x200
     71c:	0304                	.2byte	0x304
     71e:	14097f03          	.4byte	0x14097f03
     722:	0100                	.2byte	0x100
     724:	1005                	.2byte	0x1005
     726:	0200                	.2byte	0x200
     728:	0104                	.2byte	0x104
     72a:	0c090003          	lb	zero,192(s2)
     72e:	0100                	.2byte	0x100
     730:	0905                	.2byte	0x905
     732:	0c090303          	lb	t1,192(s2)
     736:	0100                	.2byte	0x100
     738:	0105                	.2byte	0x105
     73a:	04090103          	lb	sp,64(s2)
     73e:	0100                	.2byte	0x100
     740:	14090703          	lb	a4,320(s2)
     744:	0100                	.2byte	0x100
     746:	0605                	.2byte	0x605
     748:	10090103          	lb	sp,256(s2)
     74c:	0100                	.2byte	0x100
     74e:	0f05                	.2byte	0xf05
     750:	04090503          	lb	a0,64(s2)
     754:	0100                	.2byte	0x100
     756:	0805                	.2byte	0x805
     758:	04090103          	lb	sp,64(s2)
     75c:	0100                	.2byte	0x100
     75e:	0205                	.2byte	0x205
     760:	04090003          	lb	zero,64(s2)
     764:	0100                	.2byte	0x100
     766:	0905                	.2byte	0x905
     768:	04090103          	lb	sp,64(s2)
     76c:	0100                	.2byte	0x100
     76e:	0305                	.2byte	0x305
     770:	04090003          	lb	zero,64(s2)
     774:	0100                	.2byte	0x100
     776:	0805                	.2byte	0x805
     778:	04090103          	lb	sp,64(s2)
     77c:	0100                	.2byte	0x100
     77e:	0a05                	.2byte	0xa05
     780:	04090103          	lb	sp,64(s2)
     784:	0100                	.2byte	0x100
     786:	0405                	.2byte	0x405
     788:	04090003          	lb	zero,64(s2)
     78c:	0100                	.2byte	0x100
     78e:	1005                	.2byte	0x1005
     790:	0200                	.2byte	0x200
     792:	0304                	.2byte	0x304
     794:	04090103          	lb	sp,64(s2)
     798:	0100                	.2byte	0x100
     79a:	1405                	.2byte	0x1405
     79c:	0200                	.2byte	0x200
     79e:	0304                	.2byte	0x304
     7a0:	08090003          	lb	zero,128(s2)
     7a4:	0100                	.2byte	0x100
     7a6:	0d05                	.2byte	0xd05
     7a8:	0200                	.2byte	0x200
     7aa:	0304                	.2byte	0x304
     7ac:	08090003          	lb	zero,128(s2)
     7b0:	0100                	.2byte	0x100
     7b2:	1f05                	.2byte	0x1f05
     7b4:	0200                	.2byte	0x200
     7b6:	0304                	.2byte	0x304
     7b8:	10090003          	lb	zero,256(s2)
     7bc:	0100                	.2byte	0x100
     7be:	2305                	.2byte	0x2305
     7c0:	0200                	.2byte	0x200
     7c2:	0304                	.2byte	0x304
     7c4:	08090003          	lb	zero,128(s2)
     7c8:	0100                	.2byte	0x100
     7ca:	1c05                	.2byte	0x1c05
     7cc:	0200                	.2byte	0x200
     7ce:	0304                	.2byte	0x304
     7d0:	08090003          	lb	zero,128(s2)
     7d4:	0100                	.2byte	0x100
     7d6:	1905                	.2byte	0x1905
     7d8:	0200                	.2byte	0x200
     7da:	0304                	.2byte	0x304
     7dc:	10090003          	lb	zero,256(s2)
     7e0:	0100                	.2byte	0x100
     7e2:	0905                	.2byte	0x905
     7e4:	0200                	.2byte	0x200
     7e6:	0304                	.2byte	0x304
     7e8:	14090003          	lb	zero,320(s2)
     7ec:	0100                	.2byte	0x100
     7ee:	1305                	.2byte	0x1305
     7f0:	0200                	.2byte	0x200
     7f2:	0304                	.2byte	0x304
     7f4:	0c097f03          	.4byte	0xc097f03
     7f8:	0100                	.2byte	0x100
     7fa:	0f05                	.2byte	0xf05
     7fc:	0200                	.2byte	0x200
     7fe:	0104                	.2byte	0x104
     800:	0c090003          	lb	zero,192(s2)
     804:	0100                	.2byte	0x100
     806:	0d05                	.2byte	0xd05
     808:	0200                	.2byte	0x200
     80a:	0204                	.2byte	0x204
     80c:	0c090203          	lb	tp,192(s2)
     810:	0100                	.2byte	0x100
     812:	1105                	.2byte	0x1105
     814:	0200                	.2byte	0x200
     816:	0204                	.2byte	0x204
     818:	08090003          	lb	zero,128(s2)
     81c:	0100                	.2byte	0x100
     81e:	1605                	.2byte	0x1605
     820:	0200                	.2byte	0x200
     822:	0204                	.2byte	0x204
     824:	08090003          	lb	zero,128(s2)
     828:	0100                	.2byte	0x100
     82a:	1305                	.2byte	0x1305
     82c:	0200                	.2byte	0x200
     82e:	0204                	.2byte	0x204
     830:	14097c03          	.4byte	0x14097c03
     834:	0100                	.2byte	0x100
     836:	0e05                	.2byte	0xe05
     838:	0200                	.2byte	0x200
     83a:	0104                	.2byte	0x104
     83c:	0c090003          	lb	zero,192(s2)
     840:	0100                	.2byte	0x100
     842:	1205                	.2byte	0x1205
     844:	0200                	.2byte	0x200
     846:	0204                	.2byte	0x204
     848:	0c097f03          	.4byte	0xc097f03
     84c:	0100                	.2byte	0x100
     84e:	0d05                	.2byte	0xd05
     850:	0200                	.2byte	0x200
     852:	0104                	.2byte	0x104
     854:	0c090003          	lb	zero,192(s2)
     858:	0100                	.2byte	0x100
     85a:	0905                	.2byte	0x905
     85c:	0c090803          	lb	a6,192(s2)
     860:	0100                	.2byte	0x100
     862:	0105                	.2byte	0x105
     864:	04090103          	lb	sp,64(s2)
     868:	0100                	.2byte	0x100
     86a:	4b05                	.2byte	0x4b05
     86c:	14090303          	lb	t1,320(s2)
     870:	0100                	.2byte	0x100
     872:	0605                	.2byte	0x605
     874:	14090103          	lb	sp,320(s2)
     878:	0100                	.2byte	0x100
     87a:	18090103          	lb	sp,384(s2)
     87e:	0100                	.2byte	0x100
     880:	0805                	.2byte	0x805
     882:	0c090203          	lb	tp,192(s2)
     886:	0100                	.2byte	0x100
     888:	0205                	.2byte	0x205
     88a:	08090003          	lb	zero,128(s2)
     88e:	0100                	.2byte	0x100
     890:	0a05                	.2byte	0xa05
     892:	04090103          	lb	sp,64(s2)
     896:	0100                	.2byte	0x100
     898:	0505                	.2byte	0x505
     89a:	14090003          	lb	zero,320(s2)
     89e:	0100                	.2byte	0x100
     8a0:	0605                	.2byte	0x605
     8a2:	08090103          	lb	sp,128(s2)
     8a6:	0100                	.2byte	0x100
     8a8:	0905                	.2byte	0x905
     8aa:	0c090103          	lb	sp,192(s2)
     8ae:	0100                	.2byte	0x100
     8b0:	1205                	.2byte	0x1205
     8b2:	18090103          	lb	sp,384(s2)
     8b6:	0100                	.2byte	0x100
     8b8:	0c05                	.2byte	0xc05
     8ba:	14090003          	lb	zero,320(s2)
     8be:	0100                	.2byte	0x100
     8c0:	14090103          	lb	sp,320(s2)
     8c4:	0100                	.2byte	0x100
     8c6:	1405                	.2byte	0x1405
     8c8:	0200                	.2byte	0x200
     8ca:	0204                	.2byte	0x204
     8cc:	18097b03          	.4byte	0x18097b03
     8d0:	0100                	.2byte	0x100
     8d2:	0f05                	.2byte	0xf05
     8d4:	0200                	.2byte	0x200
     8d6:	0104                	.2byte	0x104
     8d8:	0c090003          	lb	zero,192(s2)
     8dc:	0100                	.2byte	0x100
     8de:	0905                	.2byte	0x905
     8e0:	0c090803          	lb	a6,192(s2)
     8e4:	0100                	.2byte	0x100
     8e6:	1605                	.2byte	0x1605
     8e8:	14090003          	lb	zero,320(s2)
     8ec:	0100                	.2byte	0x100
     8ee:	1405                	.2byte	0x1405
     8f0:	08090003          	lb	zero,128(s2)
     8f4:	0100                	.2byte	0x100
     8f6:	0405                	.2byte	0x405
     8f8:	10090003          	lb	zero,256(s2)
     8fc:	0100                	.2byte	0x100
     8fe:	1005                	.2byte	0x1005
     900:	04090103          	lb	sp,64(s2)
     904:	0100                	.2byte	0x100
     906:	0805                	.2byte	0x805
     908:	08090003          	lb	zero,128(s2)
     90c:	0100                	.2byte	0x100
     90e:	0905                	.2byte	0x905
     910:	14090103          	lb	sp,320(s2)
     914:	0100                	.2byte	0x100
     916:	1305                	.2byte	0x1305
     918:	08090003          	lb	zero,128(s2)
     91c:	0100                	.2byte	0x100
     91e:	0d05                	.2byte	0xd05
     920:	14090003          	lb	zero,320(s2)
     924:	0100                	.2byte	0x100
     926:	0c05                	.2byte	0xc05
     928:	10090103          	lb	sp,256(s2)
     92c:	0100                	.2byte	0x100
     92e:	0a05                	.2byte	0xa05
     930:	18090203          	lb	tp,384(s2)
     934:	0100                	.2byte	0x100
     936:	0105                	.2byte	0x105
     938:	08090103          	lb	sp,128(s2)
     93c:	0100                	.2byte	0x100
     93e:	4805                	.2byte	0x4805
     940:	10090203          	lb	tp,256(s2)
     944:	0100                	.2byte	0x100
     946:	0405                	.2byte	0x405
     948:	18090103          	lb	sp,384(s2)
     94c:	0100                	.2byte	0x100
     94e:	0b05                	.2byte	0xb05
     950:	0c090103          	lb	sp,192(s2)
     954:	0100                	.2byte	0x100
     956:	0305                	.2byte	0x305
     958:	10090103          	lb	sp,256(s2)
     95c:	0100                	.2byte	0x100
     95e:	14090103          	lb	sp,320(s2)
     962:	0100                	.2byte	0x100
     964:	0105                	.2byte	0x105
     966:	14090203          	lb	tp,320(s2)
     96a:	0100                	.2byte	0x100
     96c:	3a05                	.2byte	0x3a05
     96e:	14090203          	lb	tp,320(s2)
     972:	0100                	.2byte	0x100
     974:	0205                	.2byte	0x205
     976:	10090103          	lb	sp,256(s2)
     97a:	0100                	.2byte	0x100
     97c:	0905                	.2byte	0x905
     97e:	0c090103          	lb	sp,192(s2)
     982:	0100                	.2byte	0x100
     984:	0105                	.2byte	0x105
     986:	04090103          	lb	sp,64(s2)
     98a:	0100                	.2byte	0x100
     98c:	1409                	.2byte	0x1409
     98e:	0000                	.2byte	0x0
     990:	0101                	.2byte	0x101
     992:	1020                	.2byte	0x1020
     994:	0000                	.2byte	0x0
     996:	0005                	.2byte	0x5
     998:	0004                	.2byte	0x4
     99a:	0054                	.2byte	0x54
     99c:	0000                	.2byte	0x0
     99e:	0101                	.2byte	0x101
     9a0:	fb01                	.2byte	0xfb01
     9a2:	0d0e                	.2byte	0xd0e
     9a4:	0100                	.2byte	0x100
     9a6:	0101                	.2byte	0x101
     9a8:	0001                	.2byte	0x1
     9aa:	0000                	.2byte	0x0
     9ac:	0001                	.2byte	0x1
     9ae:	0100                	.2byte	0x100
     9b0:	0101                	.2byte	0x101
     9b2:	041f 0000 0000      	.byte	0x1f, 0x04, 0x00, 0x00, 0x00, 0x00
     9b8:	003a                	.2byte	0x3a
     9ba:	0000                	.2byte	0x0
     9bc:	0069                	.2byte	0x69
     9be:	0000                	.2byte	0x0
     9c0:	0000007b          	.4byte	0x7b
     9c4:	0102                	.2byte	0x102
     9c6:	021f 080f 00fc      	.byte	0x1f, 0x02, 0x0f, 0x08, 0xfc, 0x00
     9cc:	0000                	.2byte	0x0
     9ce:	b100                	.2byte	0xb100
     9d0:	0000                	.2byte	0x0
     9d2:	0100                	.2byte	0x100
     9d4:	00ba                	.2byte	0xba
     9d6:	0000                	.2byte	0x0
     9d8:	c302                	.2byte	0xc302
     9da:	0000                	.2byte	0x0
     9dc:	0100                	.2byte	0x100
     9de:	0115                	.2byte	0x115
     9e0:	0000                	.2byte	0x0
     9e2:	c901                	.2byte	0xc901
     9e4:	0000                	.2byte	0x0
     9e6:	0100                	.2byte	0x100
     9e8:	00fc                	.2byte	0xfc
     9ea:	0000                	.2byte	0x0
     9ec:	d300                	.2byte	0xd300
     9ee:	0000                	.2byte	0x0
     9f0:	0300                	.2byte	0x300
     9f2:	0105                	.2byte	0x105
     9f4:	0500                	.2byte	0x500
     9f6:	dc02                	.2byte	0xdc02
     9f8:	0002                	.2byte	0x2
     9fa:	0310                	.2byte	0x310
     9fc:	010e                	.2byte	0x10e
     9fe:	0c090b03          	lb	s6,192(s2)
     a02:	0100                	.2byte	0x100
     a04:	10090303          	lb	t1,256(s2)
     a08:	0100                	.2byte	0x100
     a0a:	0c090403          	lb	s0,192(s2)
     a0e:	0100                	.2byte	0x100
     a10:	0204                	.2byte	0x204
     a12:	10090003          	lb	zero,256(s2)
     a16:	0100                	.2byte	0x100
     a18:	0505                	.2byte	0x505
     a1a:	14090103          	lb	sp,320(s2)
     a1e:	0100                	.2byte	0x100
     a20:	2005                	.2byte	0x2005
     a22:	04090003          	lb	zero,64(s2)
     a26:	0100                	.2byte	0x100
     a28:	0105                	.2byte	0x105
     a2a:	08090103          	lb	sp,128(s2)
     a2e:	0100                	.2byte	0x100
     a30:	0304                	.2byte	0x304
     a32:	3b05                	.2byte	0x3b05
     a34:	09068203          	lb	tp,144(a3)
     a38:	0010                	.2byte	0x10
     a3a:	0501                	.2byte	0x501
     a3c:	0302                	.2byte	0x302
     a3e:	0901                	.2byte	0x901
     a40:	0014                	.2byte	0x14
     a42:	0501                	.2byte	0x501
     a44:	0301                	.2byte	0x301
     a46:	0901                	.2byte	0x901
     a48:	0010                	.2byte	0x10
     a4a:	0401                	.2byte	0x401
     a4c:	0304                	.2byte	0x304
     a4e:	79ec                	.2byte	0x79ec
     a50:	1409                	.2byte	0x1409
     a52:	0100                	.2byte	0x100
     a54:	0505                	.2byte	0x505
     a56:	18090103          	lb	sp,384(s2)
     a5a:	0100                	.2byte	0x100
     a5c:	0305                	.2byte	0x305
     a5e:	0c090103          	lb	sp,192(s2)
     a62:	0100                	.2byte	0x100
     a64:	0b05                	.2byte	0xb05
     a66:	08090103          	lb	sp,128(s2)
     a6a:	0100                	.2byte	0x100
     a6c:	0d05                	.2byte	0xd05
     a6e:	0200                	.2byte	0x200
     a70:	0104                	.2byte	0x104
     a72:	04090003          	lb	zero,64(s2)
     a76:	0100                	.2byte	0x100
     a78:	3c05                	.2byte	0x3c05
     a7a:	0200                	.2byte	0x200
     a7c:	0104                	.2byte	0x104
     a7e:	0c090003          	lb	zero,192(s2)
     a82:	0100                	.2byte	0x100
     a84:	0305                	.2byte	0x305
     a86:	08090103          	lb	sp,128(s2)
     a8a:	0100                	.2byte	0x100
     a8c:	3205                	.2byte	0x3205
     a8e:	08090003          	lb	zero,128(s2)
     a92:	0100                	.2byte	0x100
     a94:	0105                	.2byte	0x105
     a96:	08090103          	lb	sp,128(s2)
     a9a:	0100                	.2byte	0x100
     a9c:	14090303          	lb	t1,320(s2)
     aa0:	0100                	.2byte	0x100
     aa2:	0805                	.2byte	0x805
     aa4:	14090103          	lb	sp,320(s2)
     aa8:	0100                	.2byte	0x100
     aaa:	0e05                	.2byte	0xe05
     aac:	04090103          	lb	sp,64(s2)
     ab0:	0100                	.2byte	0x100
     ab2:	0305                	.2byte	0x305
     ab4:	0c090003          	lb	zero,192(s2)
     ab8:	0100                	.2byte	0x100
     aba:	0905                	.2byte	0x905
     abc:	0c097f03          	.4byte	0xc097f03
     ac0:	0100                	.2byte	0x100
     ac2:	0105                	.2byte	0x105
     ac4:	0c090203          	lb	tp,192(s2)
     ac8:	0100                	.2byte	0x100
     aca:	0504                	.2byte	0x504
     acc:	18097903          	.4byte	0x18097903
     ad0:	0100                	.2byte	0x100
     ad2:	0205                	.2byte	0x205
     ad4:	0c090203          	lb	tp,192(s2)
     ad8:	0100                	.2byte	0x100
     ada:	0905                	.2byte	0x905
     adc:	08090103          	lb	sp,128(s2)
     ae0:	0100                	.2byte	0x100
     ae2:	0105                	.2byte	0x105
     ae4:	04090103          	lb	sp,64(s2)
     ae8:	0100                	.2byte	0x100
     aea:	10090303          	lb	t1,256(s2)
     aee:	0100                	.2byte	0x100
     af0:	0205                	.2byte	0x205
     af2:	10090103          	lb	sp,256(s2)
     af6:	0100                	.2byte	0x100
     af8:	0105                	.2byte	0x105
     afa:	08090103          	lb	sp,128(s2)
     afe:	0100                	.2byte	0x100
     b00:	0604                	.2byte	0x604
     b02:	10097e03          	.4byte	0x10097e03
     b06:	0100                	.2byte	0x100
     b08:	0a05                	.2byte	0xa05
     b0a:	10091f03          	lh	t5,256(s2)
     b0e:	0100                	.2byte	0x100
     b10:	2b05                	.2byte	0x2b05
     b12:	08090003          	lb	zero,128(s2)
     b16:	0100                	.2byte	0x100
     b18:	0a05                	.2byte	0xa05
     b1a:	0c090103          	lb	sp,192(s2)
     b1e:	0100                	.2byte	0x100
     b20:	2b05                	.2byte	0x2b05
     b22:	08090003          	lb	zero,128(s2)
     b26:	0100                	.2byte	0x100
     b28:	0a05                	.2byte	0xa05
     b2a:	0c090103          	lb	sp,192(s2)
     b2e:	0100                	.2byte	0x100
     b30:	2b05                	.2byte	0x2b05
     b32:	08090003          	lb	zero,128(s2)
     b36:	0100                	.2byte	0x100
     b38:	0a05                	.2byte	0xa05
     b3a:	0c090103          	lb	sp,192(s2)
     b3e:	0100                	.2byte	0x100
     b40:	2b05                	.2byte	0x2b05
     b42:	08090003          	lb	zero,128(s2)
     b46:	0100                	.2byte	0x100
     b48:	0a05                	.2byte	0xa05
     b4a:	0c090103          	lb	sp,192(s2)
     b4e:	0100                	.2byte	0x100
     b50:	2b05                	.2byte	0x2b05
     b52:	08090003          	lb	zero,128(s2)
     b56:	0100                	.2byte	0x100
     b58:	0a05                	.2byte	0xa05
     b5a:	0c090103          	lb	sp,192(s2)
     b5e:	0100                	.2byte	0x100
     b60:	2b05                	.2byte	0x2b05
     b62:	08090003          	lb	zero,128(s2)
     b66:	0100                	.2byte	0x100
     b68:	0a05                	.2byte	0xa05
     b6a:	0c090103          	lb	sp,192(s2)
     b6e:	0100                	.2byte	0x100
     b70:	2b05                	.2byte	0x2b05
     b72:	08090003          	lb	zero,128(s2)
     b76:	0100                	.2byte	0x100
     b78:	0a05                	.2byte	0xa05
     b7a:	0c090103          	lb	sp,192(s2)
     b7e:	0100                	.2byte	0x100
     b80:	2b05                	.2byte	0x2b05
     b82:	08090003          	lb	zero,128(s2)
     b86:	0100                	.2byte	0x100
     b88:	0a05                	.2byte	0xa05
     b8a:	0c090103          	lb	sp,192(s2)
     b8e:	0100                	.2byte	0x100
     b90:	2b05                	.2byte	0x2b05
     b92:	08090003          	lb	zero,128(s2)
     b96:	0100                	.2byte	0x100
     b98:	0a05                	.2byte	0xa05
     b9a:	0c090103          	lb	sp,192(s2)
     b9e:	0100                	.2byte	0x100
     ba0:	2b05                	.2byte	0x2b05
     ba2:	08090003          	lb	zero,128(s2)
     ba6:	0100                	.2byte	0x100
     ba8:	0a05                	.2byte	0xa05
     baa:	0c090103          	lb	sp,192(s2)
     bae:	0100                	.2byte	0x100
     bb0:	2b05                	.2byte	0x2b05
     bb2:	08090003          	lb	zero,128(s2)
     bb6:	0100                	.2byte	0x100
     bb8:	0a05                	.2byte	0xa05
     bba:	0c090103          	lb	sp,192(s2)
     bbe:	0100                	.2byte	0x100
     bc0:	2b05                	.2byte	0x2b05
     bc2:	08090003          	lb	zero,128(s2)
     bc6:	0100                	.2byte	0x100
     bc8:	0a05                	.2byte	0xa05
     bca:	0c090103          	lb	sp,192(s2)
     bce:	0100                	.2byte	0x100
     bd0:	2b05                	.2byte	0x2b05
     bd2:	08090003          	lb	zero,128(s2)
     bd6:	0100                	.2byte	0x100
     bd8:	0a05                	.2byte	0xa05
     bda:	0c090103          	lb	sp,192(s2)
     bde:	0100                	.2byte	0x100
     be0:	2b05                	.2byte	0x2b05
     be2:	08090003          	lb	zero,128(s2)
     be6:	0100                	.2byte	0x100
     be8:	0a05                	.2byte	0xa05
     bea:	0c090103          	lb	sp,192(s2)
     bee:	0100                	.2byte	0x100
     bf0:	2b05                	.2byte	0x2b05
     bf2:	08090003          	lb	zero,128(s2)
     bf6:	0100                	.2byte	0x100
     bf8:	0a05                	.2byte	0xa05
     bfa:	0c090103          	lb	sp,192(s2)
     bfe:	0100                	.2byte	0x100
     c00:	2b05                	.2byte	0x2b05
     c02:	08090003          	lb	zero,128(s2)
     c06:	0100                	.2byte	0x100
     c08:	0a05                	.2byte	0xa05
     c0a:	0c090203          	lb	tp,192(s2)
     c0e:	0100                	.2byte	0x100
     c10:	2b05                	.2byte	0x2b05
     c12:	08090003          	lb	zero,128(s2)
     c16:	0100                	.2byte	0x100
     c18:	0a05                	.2byte	0xa05
     c1a:	0c090103          	lb	sp,192(s2)
     c1e:	0100                	.2byte	0x100
     c20:	2b05                	.2byte	0x2b05
     c22:	08090003          	lb	zero,128(s2)
     c26:	0100                	.2byte	0x100
     c28:	0a05                	.2byte	0xa05
     c2a:	0c090103          	lb	sp,192(s2)
     c2e:	0100                	.2byte	0x100
     c30:	2b05                	.2byte	0x2b05
     c32:	08090003          	lb	zero,128(s2)
     c36:	0100                	.2byte	0x100
     c38:	0a05                	.2byte	0xa05
     c3a:	0c090103          	lb	sp,192(s2)
     c3e:	0100                	.2byte	0x100
     c40:	2b05                	.2byte	0x2b05
     c42:	08090003          	lb	zero,128(s2)
     c46:	0100                	.2byte	0x100
     c48:	0a05                	.2byte	0xa05
     c4a:	0c090103          	lb	sp,192(s2)
     c4e:	0100                	.2byte	0x100
     c50:	2b05                	.2byte	0x2b05
     c52:	08090003          	lb	zero,128(s2)
     c56:	0100                	.2byte	0x100
     c58:	0a05                	.2byte	0xa05
     c5a:	0c090103          	lb	sp,192(s2)
     c5e:	0100                	.2byte	0x100
     c60:	2b05                	.2byte	0x2b05
     c62:	08090003          	lb	zero,128(s2)
     c66:	0100                	.2byte	0x100
     c68:	0a05                	.2byte	0xa05
     c6a:	0c090103          	lb	sp,192(s2)
     c6e:	0100                	.2byte	0x100
     c70:	2b05                	.2byte	0x2b05
     c72:	08090003          	lb	zero,128(s2)
     c76:	0100                	.2byte	0x100
     c78:	0a05                	.2byte	0xa05
     c7a:	0c090103          	lb	sp,192(s2)
     c7e:	0100                	.2byte	0x100
     c80:	2b05                	.2byte	0x2b05
     c82:	08090003          	lb	zero,128(s2)
     c86:	0100                	.2byte	0x100
     c88:	0a05                	.2byte	0xa05
     c8a:	0c090103          	lb	sp,192(s2)
     c8e:	0100                	.2byte	0x100
     c90:	2b05                	.2byte	0x2b05
     c92:	08090003          	lb	zero,128(s2)
     c96:	0100                	.2byte	0x100
     c98:	0a05                	.2byte	0xa05
     c9a:	0c090103          	lb	sp,192(s2)
     c9e:	0100                	.2byte	0x100
     ca0:	2b05                	.2byte	0x2b05
     ca2:	08090003          	lb	zero,128(s2)
     ca6:	0100                	.2byte	0x100
     ca8:	0a05                	.2byte	0xa05
     caa:	0c090103          	lb	sp,192(s2)
     cae:	0100                	.2byte	0x100
     cb0:	2b05                	.2byte	0x2b05
     cb2:	08090003          	lb	zero,128(s2)
     cb6:	0100                	.2byte	0x100
     cb8:	0a05                	.2byte	0xa05
     cba:	0c090103          	lb	sp,192(s2)
     cbe:	0100                	.2byte	0x100
     cc0:	2b05                	.2byte	0x2b05
     cc2:	08090003          	lb	zero,128(s2)
     cc6:	0100                	.2byte	0x100
     cc8:	0a05                	.2byte	0xa05
     cca:	0c090103          	lb	sp,192(s2)
     cce:	0100                	.2byte	0x100
     cd0:	2b05                	.2byte	0x2b05
     cd2:	08090003          	lb	zero,128(s2)
     cd6:	0100                	.2byte	0x100
     cd8:	0a05                	.2byte	0xa05
     cda:	0c090103          	lb	sp,192(s2)
     cde:	0100                	.2byte	0x100
     ce0:	2b05                	.2byte	0x2b05
     ce2:	08090003          	lb	zero,128(s2)
     ce6:	0100                	.2byte	0x100
     ce8:	0a05                	.2byte	0xa05
     cea:	0c090103          	lb	sp,192(s2)
     cee:	0100                	.2byte	0x100
     cf0:	2b05                	.2byte	0x2b05
     cf2:	08090003          	lb	zero,128(s2)
     cf6:	0100                	.2byte	0x100
     cf8:	0a05                	.2byte	0xa05
     cfa:	0c090203          	lb	tp,192(s2)
     cfe:	0100                	.2byte	0x100
     d00:	2b05                	.2byte	0x2b05
     d02:	08090003          	lb	zero,128(s2)
     d06:	0100                	.2byte	0x100
     d08:	0a05                	.2byte	0xa05
     d0a:	0c090103          	lb	sp,192(s2)
     d0e:	0100                	.2byte	0x100
     d10:	2b05                	.2byte	0x2b05
     d12:	08090003          	lb	zero,128(s2)
     d16:	0100                	.2byte	0x100
     d18:	0305                	.2byte	0x305
     d1a:	08090403          	lb	s0,128(s2)
     d1e:	0100                	.2byte	0x100
     d20:	3205                	.2byte	0x3205
     d22:	04090003          	lb	zero,64(s2)
     d26:	0100                	.2byte	0x100
     d28:	0905                	.2byte	0x905
     d2a:	08090403          	lb	s0,128(s2)
     d2e:	0100                	.2byte	0x100
     d30:	0705                	.2byte	0x705
     d32:	08090003          	lb	zero,128(s2)
     d36:	0100                	.2byte	0x100
     d38:	04090103          	lb	sp,64(s2)
     d3c:	0100                	.2byte	0x100
     d3e:	0205                	.2byte	0x205
     d40:	0c090103          	lb	sp,192(s2)
     d44:	0100                	.2byte	0x100
     d46:	0c090203          	lb	tp,192(s2)
     d4a:	0100                	.2byte	0x100
     d4c:	0305                	.2byte	0x305
     d4e:	08090403          	lb	s0,128(s2)
     d52:	0100                	.2byte	0x100
     d54:	2405                	.2byte	0x2405
     d56:	04090003          	lb	zero,64(s2)
     d5a:	0100                	.2byte	0x100
     d5c:	0805                	.2byte	0x805
     d5e:	08090103          	lb	sp,128(s2)
     d62:	0100                	.2byte	0x100
     d64:	0a05                	.2byte	0xa05
     d66:	0200                	.2byte	0x200
     d68:	0104                	.2byte	0x104
     d6a:	04090003          	lb	zero,64(s2)
     d6e:	0100                	.2byte	0x100
     d70:	2b05                	.2byte	0x2b05
     d72:	0200                	.2byte	0x200
     d74:	0104                	.2byte	0x104
     d76:	08090003          	lb	zero,128(s2)
     d7a:	0100                	.2byte	0x100
     d7c:	3c05                	.2byte	0x3c05
     d7e:	08090403          	lb	s0,128(s2)
     d82:	0100                	.2byte	0x100
     d84:	7205                	.2byte	0x7205
     d86:	08090003          	lb	zero,128(s2)
     d8a:	0100                	.2byte	0x100
     d8c:	0305                	.2byte	0x305
     d8e:	08090003          	lb	zero,128(s2)
     d92:	0100                	.2byte	0x100
     d94:	3905                	.2byte	0x3905
     d96:	08090003          	lb	zero,128(s2)
     d9a:	0100                	.2byte	0x100
     d9c:	3b05                	.2byte	0x3b05
     d9e:	04090103          	lb	sp,64(s2)
     da2:	0100                	.2byte	0x100
     da4:	7005                	.2byte	0x7005
     da6:	08090003          	lb	zero,128(s2)
     daa:	0100                	.2byte	0x100
     dac:	0305                	.2byte	0x305
     dae:	08090003          	lb	zero,128(s2)
     db2:	0100                	.2byte	0x100
     db4:	3805                	.2byte	0x3805
     db6:	08090003          	lb	zero,128(s2)
     dba:	0100                	.2byte	0x100
     dbc:	3b05                	.2byte	0x3b05
     dbe:	04090103          	lb	sp,64(s2)
     dc2:	0100                	.2byte	0x100
     dc4:	7005                	.2byte	0x7005
     dc6:	08090003          	lb	zero,128(s2)
     dca:	0100                	.2byte	0x100
     dcc:	0305                	.2byte	0x305
     dce:	08090003          	lb	zero,128(s2)
     dd2:	0100                	.2byte	0x100
     dd4:	3805                	.2byte	0x3805
     dd6:	08090003          	lb	zero,128(s2)
     dda:	0100                	.2byte	0x100
     ddc:	3505                	.2byte	0x3505
     dde:	04090103          	lb	sp,64(s2)
     de2:	0100                	.2byte	0x100
     de4:	6405                	.2byte	0x6405
     de6:	04090003          	lb	zero,64(s2)
     dea:	0100                	.2byte	0x100
     dec:	0305                	.2byte	0x305
     dee:	08090003          	lb	zero,128(s2)
     df2:	0100                	.2byte	0x100
     df4:	3205                	.2byte	0x3205
     df6:	08090003          	lb	zero,128(s2)
     dfa:	0100                	.2byte	0x100
     dfc:	0305                	.2byte	0x305
     dfe:	04090303          	lb	t1,64(s2)
     e02:	0100                	.2byte	0x100
     e04:	2405                	.2byte	0x2405
     e06:	08090003          	lb	zero,128(s2)
     e0a:	0100                	.2byte	0x100
     e0c:	0305                	.2byte	0x305
     e0e:	08090303          	lb	t1,128(s2)
     e12:	0100                	.2byte	0x100
     e14:	3805                	.2byte	0x3805
     e16:	08090003          	lb	zero,128(s2)
     e1a:	0100                	.2byte	0x100
     e1c:	3b05                	.2byte	0x3b05
     e1e:	04090303          	lb	t1,64(s2)
     e22:	0100                	.2byte	0x100
     e24:	7005                	.2byte	0x7005
     e26:	08090003          	lb	zero,128(s2)
     e2a:	0100                	.2byte	0x100
     e2c:	0305                	.2byte	0x305
     e2e:	08090003          	lb	zero,128(s2)
     e32:	0100                	.2byte	0x100
     e34:	3805                	.2byte	0x3805
     e36:	08090003          	lb	zero,128(s2)
     e3a:	0100                	.2byte	0x100
     e3c:	0605                	.2byte	0x605
     e3e:	04090303          	lb	t1,64(s2)
     e42:	0100                	.2byte	0x100
     e44:	1105                	.2byte	0x1105
     e46:	0c090203          	lb	tp,192(s2)
     e4a:	0100                	.2byte	0x100
     e4c:	2605                	.2byte	0x2605
     e4e:	0c090103          	lb	sp,192(s2)
     e52:	0100                	.2byte	0x100
     e54:	2f05                	.2byte	0x2f05
     e56:	08090003          	lb	zero,128(s2)
     e5a:	0100                	.2byte	0x100
     e5c:	0305                	.2byte	0x305
     e5e:	04090003          	lb	zero,64(s2)
     e62:	0100                	.2byte	0x100
     e64:	2405                	.2byte	0x2405
     e66:	08090003          	lb	zero,128(s2)
     e6a:	0100                	.2byte	0x100
     e6c:	2f05                	.2byte	0x2f05
     e6e:	04090103          	lb	sp,64(s2)
     e72:	0100                	.2byte	0x100
     e74:	2605                	.2byte	0x2605
     e76:	08090003          	lb	zero,128(s2)
     e7a:	0100                	.2byte	0x100
     e7c:	3305                	.2byte	0x3305
     e7e:	04090003          	lb	zero,64(s2)
     e82:	0100                	.2byte	0x100
     e84:	0305                	.2byte	0x305
     e86:	04090003          	lb	zero,64(s2)
     e8a:	0100                	.2byte	0x100
     e8c:	2405                	.2byte	0x2405
     e8e:	08090003          	lb	zero,128(s2)
     e92:	0100                	.2byte	0x100
     e94:	2f05                	.2byte	0x2f05
     e96:	04090103          	lb	sp,64(s2)
     e9a:	0100                	.2byte	0x100
     e9c:	2605                	.2byte	0x2605
     e9e:	08090003          	lb	zero,128(s2)
     ea2:	0100                	.2byte	0x100
     ea4:	3305                	.2byte	0x3305
     ea6:	04090003          	lb	zero,64(s2)
     eaa:	0100                	.2byte	0x100
     eac:	0305                	.2byte	0x305
     eae:	04090003          	lb	zero,64(s2)
     eb2:	0100                	.2byte	0x100
     eb4:	2405                	.2byte	0x2405
     eb6:	08090003          	lb	zero,128(s2)
     eba:	0100                	.2byte	0x100
     ebc:	2f05                	.2byte	0x2f05
     ebe:	04090103          	lb	sp,64(s2)
     ec2:	0100                	.2byte	0x100
     ec4:	2605                	.2byte	0x2605
     ec6:	08090003          	lb	zero,128(s2)
     eca:	0100                	.2byte	0x100
     ecc:	3305                	.2byte	0x3305
     ece:	04090003          	lb	zero,64(s2)
     ed2:	0100                	.2byte	0x100
     ed4:	0305                	.2byte	0x305
     ed6:	04090003          	lb	zero,64(s2)
     eda:	0100                	.2byte	0x100
     edc:	2405                	.2byte	0x2405
     ede:	08090003          	lb	zero,128(s2)
     ee2:	0100                	.2byte	0x100
     ee4:	2f05                	.2byte	0x2f05
     ee6:	04090103          	lb	sp,64(s2)
     eea:	0100                	.2byte	0x100
     eec:	2605                	.2byte	0x2605
     eee:	08090003          	lb	zero,128(s2)
     ef2:	0100                	.2byte	0x100
     ef4:	3305                	.2byte	0x3305
     ef6:	04090003          	lb	zero,64(s2)
     efa:	0100                	.2byte	0x100
     efc:	0305                	.2byte	0x305
     efe:	04090003          	lb	zero,64(s2)
     f02:	0100                	.2byte	0x100
     f04:	2405                	.2byte	0x2405
     f06:	08090003          	lb	zero,128(s2)
     f0a:	0100                	.2byte	0x100
     f0c:	2f05                	.2byte	0x2f05
     f0e:	04090103          	lb	sp,64(s2)
     f12:	0100                	.2byte	0x100
     f14:	2605                	.2byte	0x2605
     f16:	08090003          	lb	zero,128(s2)
     f1a:	0100                	.2byte	0x100
     f1c:	3305                	.2byte	0x3305
     f1e:	04090003          	lb	zero,64(s2)
     f22:	0100                	.2byte	0x100
     f24:	0305                	.2byte	0x305
     f26:	04090003          	lb	zero,64(s2)
     f2a:	0100                	.2byte	0x100
     f2c:	2405                	.2byte	0x2405
     f2e:	08090003          	lb	zero,128(s2)
     f32:	0100                	.2byte	0x100
     f34:	2f05                	.2byte	0x2f05
     f36:	04090103          	lb	sp,64(s2)
     f3a:	0100                	.2byte	0x100
     f3c:	2605                	.2byte	0x2605
     f3e:	08090003          	lb	zero,128(s2)
     f42:	0100                	.2byte	0x100
     f44:	3305                	.2byte	0x3305
     f46:	04090003          	lb	zero,64(s2)
     f4a:	0100                	.2byte	0x100
     f4c:	0305                	.2byte	0x305
     f4e:	04090003          	lb	zero,64(s2)
     f52:	0100                	.2byte	0x100
     f54:	2405                	.2byte	0x2405
     f56:	08090003          	lb	zero,128(s2)
     f5a:	0100                	.2byte	0x100
     f5c:	2f05                	.2byte	0x2f05
     f5e:	04090103          	lb	sp,64(s2)
     f62:	0100                	.2byte	0x100
     f64:	2605                	.2byte	0x2605
     f66:	08090003          	lb	zero,128(s2)
     f6a:	0100                	.2byte	0x100
     f6c:	3305                	.2byte	0x3305
     f6e:	04090003          	lb	zero,64(s2)
     f72:	0100                	.2byte	0x100
     f74:	0305                	.2byte	0x305
     f76:	04090003          	lb	zero,64(s2)
     f7a:	0100                	.2byte	0x100
     f7c:	2405                	.2byte	0x2405
     f7e:	08090003          	lb	zero,128(s2)
     f82:	0100                	.2byte	0x100
     f84:	2f05                	.2byte	0x2f05
     f86:	04090103          	lb	sp,64(s2)
     f8a:	0100                	.2byte	0x100
     f8c:	2605                	.2byte	0x2605
     f8e:	08090003          	lb	zero,128(s2)
     f92:	0100                	.2byte	0x100
     f94:	3305                	.2byte	0x3305
     f96:	04090003          	lb	zero,64(s2)
     f9a:	0100                	.2byte	0x100
     f9c:	0305                	.2byte	0x305
     f9e:	04090003          	lb	zero,64(s2)
     fa2:	0100                	.2byte	0x100
     fa4:	2405                	.2byte	0x2405
     fa6:	08090003          	lb	zero,128(s2)
     faa:	0100                	.2byte	0x100
     fac:	2f05                	.2byte	0x2f05
     fae:	04090103          	lb	sp,64(s2)
     fb2:	0100                	.2byte	0x100
     fb4:	2605                	.2byte	0x2605
     fb6:	08090003          	lb	zero,128(s2)
     fba:	0100                	.2byte	0x100
     fbc:	3305                	.2byte	0x3305
     fbe:	04090003          	lb	zero,64(s2)
     fc2:	0100                	.2byte	0x100
     fc4:	0305                	.2byte	0x305
     fc6:	04090003          	lb	zero,64(s2)
     fca:	0100                	.2byte	0x100
     fcc:	2405                	.2byte	0x2405
     fce:	08090003          	lb	zero,128(s2)
     fd2:	0100                	.2byte	0x100
     fd4:	2f05                	.2byte	0x2f05
     fd6:	04090103          	lb	sp,64(s2)
     fda:	0100                	.2byte	0x100
     fdc:	2605                	.2byte	0x2605
     fde:	08090003          	lb	zero,128(s2)
     fe2:	0100                	.2byte	0x100
     fe4:	3405                	.2byte	0x3405
     fe6:	04090003          	lb	zero,64(s2)
     fea:	0100                	.2byte	0x100
     fec:	0305                	.2byte	0x305
     fee:	04090003          	lb	zero,64(s2)
     ff2:	0100                	.2byte	0x100
     ff4:	2405                	.2byte	0x2405
     ff6:	08090003          	lb	zero,128(s2)
     ffa:	0100                	.2byte	0x100
     ffc:	0305                	.2byte	0x305
     ffe:	04090203          	lb	tp,64(s2)
    1002:	0100                	.2byte	0x100
    1004:	2405                	.2byte	0x2405
    1006:	08090003          	lb	zero,128(s2)
    100a:	0100                	.2byte	0x100
    100c:	0305                	.2byte	0x305
    100e:	08090703          	lb	a4,128(s2)
    1012:	0100                	.2byte	0x100
    1014:	3205                	.2byte	0x3205
    1016:	04090003          	lb	zero,64(s2)
    101a:	0100                	.2byte	0x100
    101c:	0905                	.2byte	0x905
    101e:	08090303          	lb	t1,128(s2)
    1022:	0100                	.2byte	0x100
    1024:	0705                	.2byte	0x705
    1026:	08090003          	lb	zero,128(s2)
    102a:	0100                	.2byte	0x100
    102c:	04090103          	lb	sp,64(s2)
    1030:	0100                	.2byte	0x100
    1032:	0205                	.2byte	0x205
    1034:	0c090103          	lb	sp,192(s2)
    1038:	0100                	.2byte	0x100
    103a:	0c090203          	lb	tp,192(s2)
    103e:	0100                	.2byte	0x100
    1040:	0305                	.2byte	0x305
    1042:	08090403          	lb	s0,128(s2)
    1046:	0100                	.2byte	0x100
    1048:	2405                	.2byte	0x2405
    104a:	04090003          	lb	zero,64(s2)
    104e:	0100                	.2byte	0x100
    1050:	0805                	.2byte	0x805
    1052:	08090103          	lb	sp,128(s2)
    1056:	0100                	.2byte	0x100
    1058:	0a05                	.2byte	0xa05
    105a:	0200                	.2byte	0x200
    105c:	0104                	.2byte	0x104
    105e:	04090003          	lb	zero,64(s2)
    1062:	0100                	.2byte	0x100
    1064:	2b05                	.2byte	0x2b05
    1066:	0200                	.2byte	0x200
    1068:	0104                	.2byte	0x104
    106a:	08090003          	lb	zero,128(s2)
    106e:	0100                	.2byte	0x100
    1070:	3c05                	.2byte	0x3c05
    1072:	08090403          	lb	s0,128(s2)
    1076:	0100                	.2byte	0x100
    1078:	7205                	.2byte	0x7205
    107a:	08090003          	lb	zero,128(s2)
    107e:	0100                	.2byte	0x100
    1080:	0305                	.2byte	0x305
    1082:	08090003          	lb	zero,128(s2)
    1086:	0100                	.2byte	0x100
    1088:	3905                	.2byte	0x3905
    108a:	08090003          	lb	zero,128(s2)
    108e:	0100                	.2byte	0x100
    1090:	3b05                	.2byte	0x3b05
    1092:	04090103          	lb	sp,64(s2)
    1096:	0100                	.2byte	0x100
    1098:	7005                	.2byte	0x7005
    109a:	08090003          	lb	zero,128(s2)
    109e:	0100                	.2byte	0x100
    10a0:	0305                	.2byte	0x305
    10a2:	08090003          	lb	zero,128(s2)
    10a6:	0100                	.2byte	0x100
    10a8:	3805                	.2byte	0x3805
    10aa:	08090003          	lb	zero,128(s2)
    10ae:	0100                	.2byte	0x100
    10b0:	3b05                	.2byte	0x3b05
    10b2:	04090103          	lb	sp,64(s2)
    10b6:	0100                	.2byte	0x100
    10b8:	7005                	.2byte	0x7005
    10ba:	08090003          	lb	zero,128(s2)
    10be:	0100                	.2byte	0x100
    10c0:	0305                	.2byte	0x305
    10c2:	08090003          	lb	zero,128(s2)
    10c6:	0100                	.2byte	0x100
    10c8:	3805                	.2byte	0x3805
    10ca:	08090003          	lb	zero,128(s2)
    10ce:	0100                	.2byte	0x100
    10d0:	3505                	.2byte	0x3505
    10d2:	04090103          	lb	sp,64(s2)
    10d6:	0100                	.2byte	0x100
    10d8:	6405                	.2byte	0x6405
    10da:	04090003          	lb	zero,64(s2)
    10de:	0100                	.2byte	0x100
    10e0:	0305                	.2byte	0x305
    10e2:	08090003          	lb	zero,128(s2)
    10e6:	0100                	.2byte	0x100
    10e8:	3205                	.2byte	0x3205
    10ea:	08090003          	lb	zero,128(s2)
    10ee:	0100                	.2byte	0x100
    10f0:	0305                	.2byte	0x305
    10f2:	04090403          	lb	s0,64(s2)
    10f6:	0100                	.2byte	0x100
    10f8:	2405                	.2byte	0x2405
    10fa:	08090003          	lb	zero,128(s2)
    10fe:	0100                	.2byte	0x100
    1100:	0a05                	.2byte	0xa05
    1102:	08090103          	lb	sp,128(s2)
    1106:	0100                	.2byte	0x100
    1108:	0205                	.2byte	0x205
    110a:	04090003          	lb	zero,64(s2)
    110e:	0100                	.2byte	0x100
    1110:	1305                	.2byte	0x1305
    1112:	0200                	.2byte	0x200
    1114:	0304                	.2byte	0x304
    1116:	04090003          	lb	zero,64(s2)
    111a:	0100                	.2byte	0x100
    111c:	0f05                	.2byte	0xf05
    111e:	0200                	.2byte	0x200
    1120:	0104                	.2byte	0x104
    1122:	0c090003          	lb	zero,192(s2)
    1126:	0100                	.2byte	0x100
    1128:	0305                	.2byte	0x305
    112a:	0c090303          	lb	t1,192(s2)
    112e:	0100                	.2byte	0x100
    1130:	3805                	.2byte	0x3805
    1132:	08090003          	lb	zero,128(s2)
    1136:	0100                	.2byte	0x100
    1138:	3b05                	.2byte	0x3b05
    113a:	04090303          	lb	t1,64(s2)
    113e:	0100                	.2byte	0x100
    1140:	7005                	.2byte	0x7005
    1142:	08090003          	lb	zero,128(s2)
    1146:	0100                	.2byte	0x100
    1148:	0305                	.2byte	0x305
    114a:	08090003          	lb	zero,128(s2)
    114e:	0100                	.2byte	0x100
    1150:	3805                	.2byte	0x3805
    1152:	08090003          	lb	zero,128(s2)
    1156:	0100                	.2byte	0x100
    1158:	1005                	.2byte	0x1005
    115a:	04090203          	lb	tp,64(s2)
    115e:	0100                	.2byte	0x100
    1160:	0a05                	.2byte	0xa05
    1162:	0c090103          	lb	sp,192(s2)
    1166:	0100                	.2byte	0x100
    1168:	0205                	.2byte	0x205
    116a:	04090003          	lb	zero,64(s2)
    116e:	0100                	.2byte	0x100
    1170:	1305                	.2byte	0x1305
    1172:	0200                	.2byte	0x200
    1174:	0304                	.2byte	0x304
    1176:	04090003          	lb	zero,64(s2)
    117a:	0100                	.2byte	0x100
    117c:	0f05                	.2byte	0xf05
    117e:	0200                	.2byte	0x200
    1180:	0104                	.2byte	0x104
    1182:	0c090003          	lb	zero,192(s2)
    1186:	0100                	.2byte	0x100
    1188:	2605                	.2byte	0x2605
    118a:	0c090303          	lb	t1,192(s2)
    118e:	0100                	.2byte	0x100
    1190:	2e05                	.2byte	0x2e05
    1192:	08090003          	lb	zero,128(s2)
    1196:	0100                	.2byte	0x100
    1198:	0305                	.2byte	0x305
    119a:	04090003          	lb	zero,64(s2)
    119e:	0100                	.2byte	0x100
    11a0:	2405                	.2byte	0x2405
    11a2:	08090003          	lb	zero,128(s2)
    11a6:	0100                	.2byte	0x100
    11a8:	0a05                	.2byte	0xa05
    11aa:	04090103          	lb	sp,64(s2)
    11ae:	0100                	.2byte	0x100
    11b0:	0205                	.2byte	0x205
    11b2:	04090003          	lb	zero,64(s2)
    11b6:	0100                	.2byte	0x100
    11b8:	1305                	.2byte	0x1305
    11ba:	0200                	.2byte	0x200
    11bc:	0304                	.2byte	0x304
    11be:	04090003          	lb	zero,64(s2)
    11c2:	0100                	.2byte	0x100
    11c4:	0f05                	.2byte	0xf05
    11c6:	0200                	.2byte	0x200
    11c8:	0104                	.2byte	0x104
    11ca:	0c090003          	lb	zero,192(s2)
    11ce:	0100                	.2byte	0x100
    11d0:	2e05                	.2byte	0x2e05
    11d2:	0c090303          	lb	t1,192(s2)
    11d6:	0100                	.2byte	0x100
    11d8:	2605                	.2byte	0x2605
    11da:	08090003          	lb	zero,128(s2)
    11de:	0100                	.2byte	0x100
    11e0:	3205                	.2byte	0x3205
    11e2:	04090003          	lb	zero,64(s2)
    11e6:	0100                	.2byte	0x100
    11e8:	0305                	.2byte	0x305
    11ea:	04090003          	lb	zero,64(s2)
    11ee:	0100                	.2byte	0x100
    11f0:	2405                	.2byte	0x2405
    11f2:	08090003          	lb	zero,128(s2)
    11f6:	0100                	.2byte	0x100
    11f8:	0a05                	.2byte	0xa05
    11fa:	04090103          	lb	sp,64(s2)
    11fe:	0100                	.2byte	0x100
    1200:	0205                	.2byte	0x205
    1202:	04090003          	lb	zero,64(s2)
    1206:	0100                	.2byte	0x100
    1208:	1305                	.2byte	0x1305
    120a:	0200                	.2byte	0x200
    120c:	0304                	.2byte	0x304
    120e:	04090003          	lb	zero,64(s2)
    1212:	0100                	.2byte	0x100
    1214:	0f05                	.2byte	0xf05
    1216:	0200                	.2byte	0x200
    1218:	0104                	.2byte	0x104
    121a:	0c090003          	lb	zero,192(s2)
    121e:	0100                	.2byte	0x100
    1220:	2e05                	.2byte	0x2e05
    1222:	0c090303          	lb	t1,192(s2)
    1226:	0100                	.2byte	0x100
    1228:	2605                	.2byte	0x2605
    122a:	08090003          	lb	zero,128(s2)
    122e:	0100                	.2byte	0x100
    1230:	3205                	.2byte	0x3205
    1232:	04090003          	lb	zero,64(s2)
    1236:	0100                	.2byte	0x100
    1238:	0305                	.2byte	0x305
    123a:	04090003          	lb	zero,64(s2)
    123e:	0100                	.2byte	0x100
    1240:	2405                	.2byte	0x2405
    1242:	08090003          	lb	zero,128(s2)
    1246:	0100                	.2byte	0x100
    1248:	0a05                	.2byte	0xa05
    124a:	04090103          	lb	sp,64(s2)
    124e:	0100                	.2byte	0x100
    1250:	0205                	.2byte	0x205
    1252:	04090003          	lb	zero,64(s2)
    1256:	0100                	.2byte	0x100
    1258:	1305                	.2byte	0x1305
    125a:	0200                	.2byte	0x200
    125c:	0304                	.2byte	0x304
    125e:	04090003          	lb	zero,64(s2)
    1262:	0100                	.2byte	0x100
    1264:	0f05                	.2byte	0xf05
    1266:	0200                	.2byte	0x200
    1268:	0104                	.2byte	0x104
    126a:	0c090003          	lb	zero,192(s2)
    126e:	0100                	.2byte	0x100
    1270:	2e05                	.2byte	0x2e05
    1272:	0c090303          	lb	t1,192(s2)
    1276:	0100                	.2byte	0x100
    1278:	2605                	.2byte	0x2605
    127a:	08090003          	lb	zero,128(s2)
    127e:	0100                	.2byte	0x100
    1280:	3205                	.2byte	0x3205
    1282:	04090003          	lb	zero,64(s2)
    1286:	0100                	.2byte	0x100
    1288:	0305                	.2byte	0x305
    128a:	04090003          	lb	zero,64(s2)
    128e:	0100                	.2byte	0x100
    1290:	2405                	.2byte	0x2405
    1292:	08090003          	lb	zero,128(s2)
    1296:	0100                	.2byte	0x100
    1298:	0a05                	.2byte	0xa05
    129a:	04090103          	lb	sp,64(s2)
    129e:	0100                	.2byte	0x100
    12a0:	0205                	.2byte	0x205
    12a2:	04090003          	lb	zero,64(s2)
    12a6:	0100                	.2byte	0x100
    12a8:	1305                	.2byte	0x1305
    12aa:	0200                	.2byte	0x200
    12ac:	0304                	.2byte	0x304
    12ae:	04090003          	lb	zero,64(s2)
    12b2:	0100                	.2byte	0x100
    12b4:	0f05                	.2byte	0xf05
    12b6:	0200                	.2byte	0x200
    12b8:	0104                	.2byte	0x104
    12ba:	0c090003          	lb	zero,192(s2)
    12be:	0100                	.2byte	0x100
    12c0:	2e05                	.2byte	0x2e05
    12c2:	0c090303          	lb	t1,192(s2)
    12c6:	0100                	.2byte	0x100
    12c8:	2605                	.2byte	0x2605
    12ca:	08090003          	lb	zero,128(s2)
    12ce:	0100                	.2byte	0x100
    12d0:	3205                	.2byte	0x3205
    12d2:	04090003          	lb	zero,64(s2)
    12d6:	0100                	.2byte	0x100
    12d8:	0305                	.2byte	0x305
    12da:	04090003          	lb	zero,64(s2)
    12de:	0100                	.2byte	0x100
    12e0:	2405                	.2byte	0x2405
    12e2:	08090003          	lb	zero,128(s2)
    12e6:	0100                	.2byte	0x100
    12e8:	0a05                	.2byte	0xa05
    12ea:	04090103          	lb	sp,64(s2)
    12ee:	0100                	.2byte	0x100
    12f0:	0205                	.2byte	0x205
    12f2:	04090003          	lb	zero,64(s2)
    12f6:	0100                	.2byte	0x100
    12f8:	1305                	.2byte	0x1305
    12fa:	0200                	.2byte	0x200
    12fc:	0304                	.2byte	0x304
    12fe:	04090003          	lb	zero,64(s2)
    1302:	0100                	.2byte	0x100
    1304:	0f05                	.2byte	0xf05
    1306:	0200                	.2byte	0x200
    1308:	0104                	.2byte	0x104
    130a:	0c090003          	lb	zero,192(s2)
    130e:	0100                	.2byte	0x100
    1310:	0305                	.2byte	0x305
    1312:	0c090203          	lb	tp,192(s2)
    1316:	0100                	.2byte	0x100
    1318:	2405                	.2byte	0x2405
    131a:	08090003          	lb	zero,128(s2)
    131e:	0100                	.2byte	0x100
    1320:	0a05                	.2byte	0xa05
    1322:	08090103          	lb	sp,128(s2)
    1326:	0100                	.2byte	0x100
    1328:	0205                	.2byte	0x205
    132a:	04090003          	lb	zero,64(s2)
    132e:	0100                	.2byte	0x100
    1330:	1305                	.2byte	0x1305
    1332:	0200                	.2byte	0x200
    1334:	0304                	.2byte	0x304
    1336:	04090003          	lb	zero,64(s2)
    133a:	0100                	.2byte	0x100
    133c:	0f05                	.2byte	0xf05
    133e:	0200                	.2byte	0x200
    1340:	0104                	.2byte	0x104
    1342:	0c090003          	lb	zero,192(s2)
    1346:	0100                	.2byte	0x100
    1348:	0305                	.2byte	0x305
    134a:	0c090603          	lb	a2,192(s2)
    134e:	0100                	.2byte	0x100
    1350:	3205                	.2byte	0x3205
    1352:	04090003          	lb	zero,64(s2)
    1356:	0100                	.2byte	0x100
    1358:	0905                	.2byte	0x905
    135a:	08090303          	lb	t1,128(s2)
    135e:	0100                	.2byte	0x100
    1360:	0705                	.2byte	0x705
    1362:	08090003          	lb	zero,128(s2)
    1366:	0100                	.2byte	0x100
    1368:	04090103          	lb	sp,64(s2)
    136c:	0100                	.2byte	0x100
    136e:	0205                	.2byte	0x205
    1370:	0c090103          	lb	sp,192(s2)
    1374:	0100                	.2byte	0x100
    1376:	0c090203          	lb	tp,192(s2)
    137a:	0100                	.2byte	0x100
    137c:	0305                	.2byte	0x305
    137e:	08090403          	lb	s0,128(s2)
    1382:	0100                	.2byte	0x100
    1384:	2405                	.2byte	0x2405
    1386:	04090003          	lb	zero,64(s2)
    138a:	0100                	.2byte	0x100
    138c:	0805                	.2byte	0x805
    138e:	08090103          	lb	sp,128(s2)
    1392:	0100                	.2byte	0x100
    1394:	0a05                	.2byte	0xa05
    1396:	0200                	.2byte	0x200
    1398:	0104                	.2byte	0x104
    139a:	04090003          	lb	zero,64(s2)
    139e:	0100                	.2byte	0x100
    13a0:	2b05                	.2byte	0x2b05
    13a2:	0200                	.2byte	0x200
    13a4:	0104                	.2byte	0x104
    13a6:	08090003          	lb	zero,128(s2)
    13aa:	0100                	.2byte	0x100
    13ac:	3c05                	.2byte	0x3c05
    13ae:	08090403          	lb	s0,128(s2)
    13b2:	0100                	.2byte	0x100
    13b4:	7205                	.2byte	0x7205
    13b6:	08090003          	lb	zero,128(s2)
    13ba:	0100                	.2byte	0x100
    13bc:	0305                	.2byte	0x305
    13be:	08090003          	lb	zero,128(s2)
    13c2:	0100                	.2byte	0x100
    13c4:	3905                	.2byte	0x3905
    13c6:	08090003          	lb	zero,128(s2)
    13ca:	0100                	.2byte	0x100
    13cc:	3b05                	.2byte	0x3b05
    13ce:	04090103          	lb	sp,64(s2)
    13d2:	0100                	.2byte	0x100
    13d4:	7005                	.2byte	0x7005
    13d6:	08090003          	lb	zero,128(s2)
    13da:	0100                	.2byte	0x100
    13dc:	0305                	.2byte	0x305
    13de:	08090003          	lb	zero,128(s2)
    13e2:	0100                	.2byte	0x100
    13e4:	3805                	.2byte	0x3805
    13e6:	08090003          	lb	zero,128(s2)
    13ea:	0100                	.2byte	0x100
    13ec:	3b05                	.2byte	0x3b05
    13ee:	04090103          	lb	sp,64(s2)
    13f2:	0100                	.2byte	0x100
    13f4:	7005                	.2byte	0x7005
    13f6:	08090003          	lb	zero,128(s2)
    13fa:	0100                	.2byte	0x100
    13fc:	0305                	.2byte	0x305
    13fe:	08090003          	lb	zero,128(s2)
    1402:	0100                	.2byte	0x100
    1404:	3805                	.2byte	0x3805
    1406:	08090003          	lb	zero,128(s2)
    140a:	0100                	.2byte	0x100
    140c:	3505                	.2byte	0x3505
    140e:	04090103          	lb	sp,64(s2)
    1412:	0100                	.2byte	0x100
    1414:	6405                	.2byte	0x6405
    1416:	04090003          	lb	zero,64(s2)
    141a:	0100                	.2byte	0x100
    141c:	0305                	.2byte	0x305
    141e:	08090003          	lb	zero,128(s2)
    1422:	0100                	.2byte	0x100
    1424:	3205                	.2byte	0x3205
    1426:	08090003          	lb	zero,128(s2)
    142a:	0100                	.2byte	0x100
    142c:	0305                	.2byte	0x305
    142e:	04090403          	lb	s0,64(s2)
    1432:	0100                	.2byte	0x100
    1434:	2405                	.2byte	0x2405
    1436:	08090003          	lb	zero,128(s2)
    143a:	0100                	.2byte	0x100
    143c:	0a05                	.2byte	0xa05
    143e:	08090103          	lb	sp,128(s2)
    1442:	0100                	.2byte	0x100
    1444:	0205                	.2byte	0x205
    1446:	04090003          	lb	zero,64(s2)
    144a:	0100                	.2byte	0x100
    144c:	1305                	.2byte	0x1305
    144e:	0200                	.2byte	0x200
    1450:	0304                	.2byte	0x304
    1452:	04090003          	lb	zero,64(s2)
    1456:	0100                	.2byte	0x100
    1458:	0f05                	.2byte	0xf05
    145a:	0200                	.2byte	0x200
    145c:	0104                	.2byte	0x104
    145e:	0c090003          	lb	zero,192(s2)
    1462:	0100                	.2byte	0x100
    1464:	0305                	.2byte	0x305
    1466:	0c090303          	lb	t1,192(s2)
    146a:	0100                	.2byte	0x100
    146c:	3805                	.2byte	0x3805
    146e:	08090003          	lb	zero,128(s2)
    1472:	0100                	.2byte	0x100
    1474:	3b05                	.2byte	0x3b05
    1476:	04090303          	lb	t1,64(s2)
    147a:	0100                	.2byte	0x100
    147c:	7005                	.2byte	0x7005
    147e:	08090003          	lb	zero,128(s2)
    1482:	0100                	.2byte	0x100
    1484:	0305                	.2byte	0x305
    1486:	08090003          	lb	zero,128(s2)
    148a:	0100                	.2byte	0x100
    148c:	3805                	.2byte	0x3805
    148e:	08090003          	lb	zero,128(s2)
    1492:	0100                	.2byte	0x100
    1494:	1005                	.2byte	0x1005
    1496:	04090a03          	lb	s4,64(s2)
    149a:	0100                	.2byte	0x100
    149c:	0a05                	.2byte	0xa05
    149e:	0c090103          	lb	sp,192(s2)
    14a2:	0100                	.2byte	0x100
    14a4:	0205                	.2byte	0x205
    14a6:	04090003          	lb	zero,64(s2)
    14aa:	0100                	.2byte	0x100
    14ac:	1305                	.2byte	0x1305
    14ae:	0200                	.2byte	0x200
    14b0:	0304                	.2byte	0x304
    14b2:	04090003          	lb	zero,64(s2)
    14b6:	0100                	.2byte	0x100
    14b8:	0f05                	.2byte	0xf05
    14ba:	0200                	.2byte	0x200
    14bc:	0104                	.2byte	0x104
    14be:	0c090003          	lb	zero,192(s2)
    14c2:	0100                	.2byte	0x100
    14c4:	2605                	.2byte	0x2605
    14c6:	0c090303          	lb	t1,192(s2)
    14ca:	0100                	.2byte	0x100
    14cc:	2e05                	.2byte	0x2e05
    14ce:	08090003          	lb	zero,128(s2)
    14d2:	0100                	.2byte	0x100
    14d4:	0305                	.2byte	0x305
    14d6:	04090003          	lb	zero,64(s2)
    14da:	0100                	.2byte	0x100
    14dc:	2405                	.2byte	0x2405
    14de:	08090003          	lb	zero,128(s2)
    14e2:	0100                	.2byte	0x100
    14e4:	0a05                	.2byte	0xa05
    14e6:	04090103          	lb	sp,64(s2)
    14ea:	0100                	.2byte	0x100
    14ec:	0205                	.2byte	0x205
    14ee:	04090003          	lb	zero,64(s2)
    14f2:	0100                	.2byte	0x100
    14f4:	1305                	.2byte	0x1305
    14f6:	0200                	.2byte	0x200
    14f8:	0304                	.2byte	0x304
    14fa:	04090003          	lb	zero,64(s2)
    14fe:	0100                	.2byte	0x100
    1500:	0f05                	.2byte	0xf05
    1502:	0200                	.2byte	0x200
    1504:	0104                	.2byte	0x104
    1506:	0c090003          	lb	zero,192(s2)
    150a:	0100                	.2byte	0x100
    150c:	2e05                	.2byte	0x2e05
    150e:	0c090303          	lb	t1,192(s2)
    1512:	0100                	.2byte	0x100
    1514:	2605                	.2byte	0x2605
    1516:	08090003          	lb	zero,128(s2)
    151a:	0100                	.2byte	0x100
    151c:	3205                	.2byte	0x3205
    151e:	04090003          	lb	zero,64(s2)
    1522:	0100                	.2byte	0x100
    1524:	0305                	.2byte	0x305
    1526:	04090003          	lb	zero,64(s2)
    152a:	0100                	.2byte	0x100
    152c:	2405                	.2byte	0x2405
    152e:	08090003          	lb	zero,128(s2)
    1532:	0100                	.2byte	0x100
    1534:	0a05                	.2byte	0xa05
    1536:	04090103          	lb	sp,64(s2)
    153a:	0100                	.2byte	0x100
    153c:	0205                	.2byte	0x205
    153e:	04090003          	lb	zero,64(s2)
    1542:	0100                	.2byte	0x100
    1544:	1305                	.2byte	0x1305
    1546:	0200                	.2byte	0x200
    1548:	0304                	.2byte	0x304
    154a:	04090003          	lb	zero,64(s2)
    154e:	0100                	.2byte	0x100
    1550:	0f05                	.2byte	0xf05
    1552:	0200                	.2byte	0x200
    1554:	0104                	.2byte	0x104
    1556:	0c090003          	lb	zero,192(s2)
    155a:	0100                	.2byte	0x100
    155c:	2e05                	.2byte	0x2e05
    155e:	0c090303          	lb	t1,192(s2)
    1562:	0100                	.2byte	0x100
    1564:	2605                	.2byte	0x2605
    1566:	08090003          	lb	zero,128(s2)
    156a:	0100                	.2byte	0x100
    156c:	3205                	.2byte	0x3205
    156e:	04090003          	lb	zero,64(s2)
    1572:	0100                	.2byte	0x100
    1574:	0305                	.2byte	0x305
    1576:	04090003          	lb	zero,64(s2)
    157a:	0100                	.2byte	0x100
    157c:	2405                	.2byte	0x2405
    157e:	08090003          	lb	zero,128(s2)
    1582:	0100                	.2byte	0x100
    1584:	0a05                	.2byte	0xa05
    1586:	04090103          	lb	sp,64(s2)
    158a:	0100                	.2byte	0x100
    158c:	0205                	.2byte	0x205
    158e:	04090003          	lb	zero,64(s2)
    1592:	0100                	.2byte	0x100
    1594:	1305                	.2byte	0x1305
    1596:	0200                	.2byte	0x200
    1598:	0304                	.2byte	0x304
    159a:	04090003          	lb	zero,64(s2)
    159e:	0100                	.2byte	0x100
    15a0:	0f05                	.2byte	0xf05
    15a2:	0200                	.2byte	0x200
    15a4:	0104                	.2byte	0x104
    15a6:	0c090003          	lb	zero,192(s2)
    15aa:	0100                	.2byte	0x100
    15ac:	2e05                	.2byte	0x2e05
    15ae:	0c090303          	lb	t1,192(s2)
    15b2:	0100                	.2byte	0x100
    15b4:	2605                	.2byte	0x2605
    15b6:	08090003          	lb	zero,128(s2)
    15ba:	0100                	.2byte	0x100
    15bc:	3205                	.2byte	0x3205
    15be:	04090003          	lb	zero,64(s2)
    15c2:	0100                	.2byte	0x100
    15c4:	0305                	.2byte	0x305
    15c6:	04090003          	lb	zero,64(s2)
    15ca:	0100                	.2byte	0x100
    15cc:	2405                	.2byte	0x2405
    15ce:	08090003          	lb	zero,128(s2)
    15d2:	0100                	.2byte	0x100
    15d4:	0a05                	.2byte	0xa05
    15d6:	04090103          	lb	sp,64(s2)
    15da:	0100                	.2byte	0x100
    15dc:	0205                	.2byte	0x205
    15de:	04090003          	lb	zero,64(s2)
    15e2:	0100                	.2byte	0x100
    15e4:	1305                	.2byte	0x1305
    15e6:	0200                	.2byte	0x200
    15e8:	0304                	.2byte	0x304
    15ea:	04090003          	lb	zero,64(s2)
    15ee:	0100                	.2byte	0x100
    15f0:	0f05                	.2byte	0xf05
    15f2:	0200                	.2byte	0x200
    15f4:	0104                	.2byte	0x104
    15f6:	0c090003          	lb	zero,192(s2)
    15fa:	0100                	.2byte	0x100
    15fc:	2e05                	.2byte	0x2e05
    15fe:	0c090303          	lb	t1,192(s2)
    1602:	0100                	.2byte	0x100
    1604:	2605                	.2byte	0x2605
    1606:	08090003          	lb	zero,128(s2)
    160a:	0100                	.2byte	0x100
    160c:	3205                	.2byte	0x3205
    160e:	04090003          	lb	zero,64(s2)
    1612:	0100                	.2byte	0x100
    1614:	0305                	.2byte	0x305
    1616:	04090003          	lb	zero,64(s2)
    161a:	0100                	.2byte	0x100
    161c:	2405                	.2byte	0x2405
    161e:	08090003          	lb	zero,128(s2)
    1622:	0100                	.2byte	0x100
    1624:	0a05                	.2byte	0xa05
    1626:	04090103          	lb	sp,64(s2)
    162a:	0100                	.2byte	0x100
    162c:	0205                	.2byte	0x205
    162e:	04090003          	lb	zero,64(s2)
    1632:	0100                	.2byte	0x100
    1634:	1305                	.2byte	0x1305
    1636:	0200                	.2byte	0x200
    1638:	0304                	.2byte	0x304
    163a:	04090003          	lb	zero,64(s2)
    163e:	0100                	.2byte	0x100
    1640:	0f05                	.2byte	0xf05
    1642:	0200                	.2byte	0x200
    1644:	0104                	.2byte	0x104
    1646:	0c090003          	lb	zero,192(s2)
    164a:	0100                	.2byte	0x100
    164c:	2e05                	.2byte	0x2e05
    164e:	0c090303          	lb	t1,192(s2)
    1652:	0100                	.2byte	0x100
    1654:	2605                	.2byte	0x2605
    1656:	08090003          	lb	zero,128(s2)
    165a:	0100                	.2byte	0x100
    165c:	3205                	.2byte	0x3205
    165e:	04090003          	lb	zero,64(s2)
    1662:	0100                	.2byte	0x100
    1664:	0305                	.2byte	0x305
    1666:	04090003          	lb	zero,64(s2)
    166a:	0100                	.2byte	0x100
    166c:	2405                	.2byte	0x2405
    166e:	08090003          	lb	zero,128(s2)
    1672:	0100                	.2byte	0x100
    1674:	0a05                	.2byte	0xa05
    1676:	04090103          	lb	sp,64(s2)
    167a:	0100                	.2byte	0x100
    167c:	0205                	.2byte	0x205
    167e:	04090003          	lb	zero,64(s2)
    1682:	0100                	.2byte	0x100
    1684:	1305                	.2byte	0x1305
    1686:	0200                	.2byte	0x200
    1688:	0304                	.2byte	0x304
    168a:	04090003          	lb	zero,64(s2)
    168e:	0100                	.2byte	0x100
    1690:	0f05                	.2byte	0xf05
    1692:	0200                	.2byte	0x200
    1694:	0104                	.2byte	0x104
    1696:	0c090003          	lb	zero,192(s2)
    169a:	0100                	.2byte	0x100
    169c:	2e05                	.2byte	0x2e05
    169e:	0c090303          	lb	t1,192(s2)
    16a2:	0100                	.2byte	0x100
    16a4:	2605                	.2byte	0x2605
    16a6:	08090003          	lb	zero,128(s2)
    16aa:	0100                	.2byte	0x100
    16ac:	3205                	.2byte	0x3205
    16ae:	04090003          	lb	zero,64(s2)
    16b2:	0100                	.2byte	0x100
    16b4:	0305                	.2byte	0x305
    16b6:	04090003          	lb	zero,64(s2)
    16ba:	0100                	.2byte	0x100
    16bc:	2405                	.2byte	0x2405
    16be:	08090003          	lb	zero,128(s2)
    16c2:	0100                	.2byte	0x100
    16c4:	0a05                	.2byte	0xa05
    16c6:	04090103          	lb	sp,64(s2)
    16ca:	0100                	.2byte	0x100
    16cc:	0205                	.2byte	0x205
    16ce:	04090003          	lb	zero,64(s2)
    16d2:	0100                	.2byte	0x100
    16d4:	1305                	.2byte	0x1305
    16d6:	0200                	.2byte	0x200
    16d8:	0304                	.2byte	0x304
    16da:	04090003          	lb	zero,64(s2)
    16de:	0100                	.2byte	0x100
    16e0:	0f05                	.2byte	0xf05
    16e2:	0200                	.2byte	0x200
    16e4:	0104                	.2byte	0x104
    16e6:	0c090003          	lb	zero,192(s2)
    16ea:	0100                	.2byte	0x100
    16ec:	2e05                	.2byte	0x2e05
    16ee:	0c090303          	lb	t1,192(s2)
    16f2:	0100                	.2byte	0x100
    16f4:	2605                	.2byte	0x2605
    16f6:	08090003          	lb	zero,128(s2)
    16fa:	0100                	.2byte	0x100
    16fc:	3205                	.2byte	0x3205
    16fe:	04090003          	lb	zero,64(s2)
    1702:	0100                	.2byte	0x100
    1704:	0305                	.2byte	0x305
    1706:	04090003          	lb	zero,64(s2)
    170a:	0100                	.2byte	0x100
    170c:	2405                	.2byte	0x2405
    170e:	08090003          	lb	zero,128(s2)
    1712:	0100                	.2byte	0x100
    1714:	0a05                	.2byte	0xa05
    1716:	04090103          	lb	sp,64(s2)
    171a:	0100                	.2byte	0x100
    171c:	0205                	.2byte	0x205
    171e:	04090003          	lb	zero,64(s2)
    1722:	0100                	.2byte	0x100
    1724:	1305                	.2byte	0x1305
    1726:	0200                	.2byte	0x200
    1728:	0304                	.2byte	0x304
    172a:	04090003          	lb	zero,64(s2)
    172e:	0100                	.2byte	0x100
    1730:	0f05                	.2byte	0xf05
    1732:	0200                	.2byte	0x200
    1734:	0104                	.2byte	0x104
    1736:	0c090003          	lb	zero,192(s2)
    173a:	0100                	.2byte	0x100
    173c:	2e05                	.2byte	0x2e05
    173e:	0c090303          	lb	t1,192(s2)
    1742:	0100                	.2byte	0x100
    1744:	2605                	.2byte	0x2605
    1746:	08090003          	lb	zero,128(s2)
    174a:	0100                	.2byte	0x100
    174c:	3205                	.2byte	0x3205
    174e:	04090003          	lb	zero,64(s2)
    1752:	0100                	.2byte	0x100
    1754:	0305                	.2byte	0x305
    1756:	04090003          	lb	zero,64(s2)
    175a:	0100                	.2byte	0x100
    175c:	2405                	.2byte	0x2405
    175e:	08090003          	lb	zero,128(s2)
    1762:	0100                	.2byte	0x100
    1764:	0a05                	.2byte	0xa05
    1766:	04090103          	lb	sp,64(s2)
    176a:	0100                	.2byte	0x100
    176c:	0205                	.2byte	0x205
    176e:	04090003          	lb	zero,64(s2)
    1772:	0100                	.2byte	0x100
    1774:	1305                	.2byte	0x1305
    1776:	0200                	.2byte	0x200
    1778:	0304                	.2byte	0x304
    177a:	04090003          	lb	zero,64(s2)
    177e:	0100                	.2byte	0x100
    1780:	0f05                	.2byte	0xf05
    1782:	0200                	.2byte	0x200
    1784:	0104                	.2byte	0x104
    1786:	0c090003          	lb	zero,192(s2)
    178a:	0100                	.2byte	0x100
    178c:	2e05                	.2byte	0x2e05
    178e:	0c090303          	lb	t1,192(s2)
    1792:	0100                	.2byte	0x100
    1794:	2605                	.2byte	0x2605
    1796:	08090003          	lb	zero,128(s2)
    179a:	0100                	.2byte	0x100
    179c:	3205                	.2byte	0x3205
    179e:	04090003          	lb	zero,64(s2)
    17a2:	0100                	.2byte	0x100
    17a4:	0305                	.2byte	0x305
    17a6:	04090003          	lb	zero,64(s2)
    17aa:	0100                	.2byte	0x100
    17ac:	2405                	.2byte	0x2405
    17ae:	08090003          	lb	zero,128(s2)
    17b2:	0100                	.2byte	0x100
    17b4:	0a05                	.2byte	0xa05
    17b6:	04090103          	lb	sp,64(s2)
    17ba:	0100                	.2byte	0x100
    17bc:	0205                	.2byte	0x205
    17be:	04090003          	lb	zero,64(s2)
    17c2:	0100                	.2byte	0x100
    17c4:	1305                	.2byte	0x1305
    17c6:	0200                	.2byte	0x200
    17c8:	0304                	.2byte	0x304
    17ca:	04090003          	lb	zero,64(s2)
    17ce:	0100                	.2byte	0x100
    17d0:	0f05                	.2byte	0xf05
    17d2:	0200                	.2byte	0x200
    17d4:	0104                	.2byte	0x104
    17d6:	0c090003          	lb	zero,192(s2)
    17da:	0100                	.2byte	0x100
    17dc:	2605                	.2byte	0x2605
    17de:	0c090203          	lb	tp,192(s2)
    17e2:	0100                	.2byte	0x100
    17e4:	2e05                	.2byte	0x2e05
    17e6:	08090003          	lb	zero,128(s2)
    17ea:	0100                	.2byte	0x100
    17ec:	0305                	.2byte	0x305
    17ee:	04090003          	lb	zero,64(s2)
    17f2:	0100                	.2byte	0x100
    17f4:	2405                	.2byte	0x2405
    17f6:	08090003          	lb	zero,128(s2)
    17fa:	0100                	.2byte	0x100
    17fc:	0a05                	.2byte	0xa05
    17fe:	04090103          	lb	sp,64(s2)
    1802:	0100                	.2byte	0x100
    1804:	0205                	.2byte	0x205
    1806:	04090003          	lb	zero,64(s2)
    180a:	0100                	.2byte	0x100
    180c:	1305                	.2byte	0x1305
    180e:	0200                	.2byte	0x200
    1810:	0304                	.2byte	0x304
    1812:	04090003          	lb	zero,64(s2)
    1816:	0100                	.2byte	0x100
    1818:	0f05                	.2byte	0xf05
    181a:	0200                	.2byte	0x200
    181c:	0104                	.2byte	0x104
    181e:	0c090003          	lb	zero,192(s2)
    1822:	0100                	.2byte	0x100
    1824:	0305                	.2byte	0x305
    1826:	0c090303          	lb	t1,192(s2)
    182a:	0100                	.2byte	0x100
    182c:	2405                	.2byte	0x2405
    182e:	08090003          	lb	zero,128(s2)
    1832:	0100                	.2byte	0x100
    1834:	0a05                	.2byte	0xa05
    1836:	08090103          	lb	sp,128(s2)
    183a:	0100                	.2byte	0x100
    183c:	0205                	.2byte	0x205
    183e:	04090003          	lb	zero,64(s2)
    1842:	0100                	.2byte	0x100
    1844:	1305                	.2byte	0x1305
    1846:	0200                	.2byte	0x200
    1848:	0304                	.2byte	0x304
    184a:	04090003          	lb	zero,64(s2)
    184e:	0100                	.2byte	0x100
    1850:	0f05                	.2byte	0xf05
    1852:	0200                	.2byte	0x200
    1854:	0104                	.2byte	0x104
    1856:	0c090003          	lb	zero,192(s2)
    185a:	0100                	.2byte	0x100
    185c:	0705                	.2byte	0x705
    185e:	0c090403          	lb	s0,192(s2)
    1862:	0100                	.2byte	0x100
    1864:	3605                	.2byte	0x3605
    1866:	08090003          	lb	zero,128(s2)
    186a:	0100                	.2byte	0x100
    186c:	0305                	.2byte	0x305
    186e:	08090403          	lb	s0,128(s2)
    1872:	0100                	.2byte	0x100
    1874:	2405                	.2byte	0x2405
    1876:	04090003          	lb	zero,64(s2)
    187a:	0100                	.2byte	0x100
    187c:	0805                	.2byte	0x805
    187e:	08090103          	lb	sp,128(s2)
    1882:	0100                	.2byte	0x100
    1884:	0a05                	.2byte	0xa05
    1886:	0200                	.2byte	0x200
    1888:	0104                	.2byte	0x104
    188a:	04090003          	lb	zero,64(s2)
    188e:	0100                	.2byte	0x100
    1890:	2b05                	.2byte	0x2b05
    1892:	0200                	.2byte	0x200
    1894:	0104                	.2byte	0x104
    1896:	08090003          	lb	zero,128(s2)
    189a:	0100                	.2byte	0x100
    189c:	3c05                	.2byte	0x3c05
    189e:	08090403          	lb	s0,128(s2)
    18a2:	0100                	.2byte	0x100
    18a4:	7205                	.2byte	0x7205
    18a6:	08090003          	lb	zero,128(s2)
    18aa:	0100                	.2byte	0x100
    18ac:	0305                	.2byte	0x305
    18ae:	08090003          	lb	zero,128(s2)
    18b2:	0100                	.2byte	0x100
    18b4:	3905                	.2byte	0x3905
    18b6:	08090003          	lb	zero,128(s2)
    18ba:	0100                	.2byte	0x100
    18bc:	3b05                	.2byte	0x3b05
    18be:	04090103          	lb	sp,64(s2)
    18c2:	0100                	.2byte	0x100
    18c4:	7005                	.2byte	0x7005
    18c6:	08090003          	lb	zero,128(s2)
    18ca:	0100                	.2byte	0x100
    18cc:	0305                	.2byte	0x305
    18ce:	08090003          	lb	zero,128(s2)
    18d2:	0100                	.2byte	0x100
    18d4:	3805                	.2byte	0x3805
    18d6:	08090003          	lb	zero,128(s2)
    18da:	0100                	.2byte	0x100
    18dc:	3b05                	.2byte	0x3b05
    18de:	04090103          	lb	sp,64(s2)
    18e2:	0100                	.2byte	0x100
    18e4:	7005                	.2byte	0x7005
    18e6:	08090003          	lb	zero,128(s2)
    18ea:	0100                	.2byte	0x100
    18ec:	0305                	.2byte	0x305
    18ee:	08090003          	lb	zero,128(s2)
    18f2:	0100                	.2byte	0x100
    18f4:	3805                	.2byte	0x3805
    18f6:	08090003          	lb	zero,128(s2)
    18fa:	0100                	.2byte	0x100
    18fc:	3505                	.2byte	0x3505
    18fe:	04090103          	lb	sp,64(s2)
    1902:	0100                	.2byte	0x100
    1904:	6405                	.2byte	0x6405
    1906:	04090003          	lb	zero,64(s2)
    190a:	0100                	.2byte	0x100
    190c:	0305                	.2byte	0x305
    190e:	08090003          	lb	zero,128(s2)
    1912:	0100                	.2byte	0x100
    1914:	3205                	.2byte	0x3205
    1916:	08090003          	lb	zero,128(s2)
    191a:	0100                	.2byte	0x100
    191c:	0305                	.2byte	0x305
    191e:	04090603          	lb	a2,64(s2)
    1922:	0100                	.2byte	0x100
    1924:	3805                	.2byte	0x3805
    1926:	08090003          	lb	zero,128(s2)
    192a:	0100                	.2byte	0x100
    192c:	3b05                	.2byte	0x3b05
    192e:	04090303          	lb	t1,64(s2)
    1932:	0100                	.2byte	0x100
    1934:	7005                	.2byte	0x7005
    1936:	08090003          	lb	zero,128(s2)
    193a:	0100                	.2byte	0x100
    193c:	0305                	.2byte	0x305
    193e:	08090003          	lb	zero,128(s2)
    1942:	0100                	.2byte	0x100
    1944:	3805                	.2byte	0x3805
    1946:	08090003          	lb	zero,128(s2)
    194a:	0100                	.2byte	0x100
    194c:	0305                	.2byte	0x305
    194e:	04090203          	lb	tp,64(s2)
    1952:	0100                	.2byte	0x100
    1954:	2405                	.2byte	0x2405
    1956:	08090003          	lb	zero,128(s2)
    195a:	0100                	.2byte	0x100
    195c:	0a05                	.2byte	0xa05
    195e:	08090103          	lb	sp,128(s2)
    1962:	0100                	.2byte	0x100
    1964:	0205                	.2byte	0x205
    1966:	04090003          	lb	zero,64(s2)
    196a:	0100                	.2byte	0x100
    196c:	1305                	.2byte	0x1305
    196e:	0200                	.2byte	0x200
    1970:	0304                	.2byte	0x304
    1972:	04090003          	lb	zero,64(s2)
    1976:	0100                	.2byte	0x100
    1978:	0f05                	.2byte	0xf05
    197a:	0200                	.2byte	0x200
    197c:	0104                	.2byte	0x104
    197e:	0c090003          	lb	zero,192(s2)
    1982:	0100                	.2byte	0x100
    1984:	0905                	.2byte	0x905
    1986:	0c090403          	lb	s0,192(s2)
    198a:	0100                	.2byte	0x100
    198c:	0705                	.2byte	0x705
    198e:	08090003          	lb	zero,128(s2)
    1992:	0100                	.2byte	0x100
    1994:	04090103          	lb	sp,64(s2)
    1998:	0100                	.2byte	0x100
    199a:	0205                	.2byte	0x205
    199c:	0c090103          	lb	sp,192(s2)
    19a0:	0100                	.2byte	0x100
    19a2:	0c090203          	lb	tp,192(s2)
    19a6:	0100                	.2byte	0x100
    19a8:	0105                	.2byte	0x105
    19aa:	08090203          	lb	tp,128(s2)
    19ae:	0100                	.2byte	0x100
    19b0:	1409                	.2byte	0x1409
    19b2:	0000                	.2byte	0x0
    19b4:	0101                	.2byte	0x101
    19b6:	0076                	.2byte	0x76
    19b8:	0000                	.2byte	0x0
    19ba:	0005                	.2byte	0x5
    19bc:	0004                	.2byte	0x4
    19be:	002e                	.2byte	0x2e
    19c0:	0000                	.2byte	0x0
    19c2:	0101                	.2byte	0x101
    19c4:	fb01                	.2byte	0xfb01
    19c6:	0d0e                	.2byte	0xd0e
    19c8:	0100                	.2byte	0x100
    19ca:	0101                	.2byte	0x101
    19cc:	0001                	.2byte	0x1
    19ce:	0000                	.2byte	0x0
    19d0:	0001                	.2byte	0x1
    19d2:	0100                	.2byte	0x100
    19d4:	0101                	.2byte	0x101
    19d6:	021f 011c 0000      	.byte	0x1f, 0x02, 0x1c, 0x01, 0x00, 0x00
    19dc:	0000016f          	jal	sp,19dc <_fstack+0x13dc>
    19e0:	0102                	.2byte	0x102
    19e2:	021f 020f 01a7      	.byte	0x1f, 0x02, 0x0f, 0x02, 0xa7, 0x01
    19e8:	0000                	.2byte	0x0
    19ea:	a701                	.2byte	0xa701
    19ec:	0001                	.2byte	0x1
    19ee:	0100                	.2byte	0x100
    19f0:	0500                	.2byte	0x500
    19f2:	0002                	.2byte	0x2
    19f4:	0000                	.2byte	0x0
    19f6:	0338                	.2byte	0x338
    19f8:	0124                	.2byte	0x124
    19fa:	04090103          	lb	sp,64(s2)
    19fe:	0100                	.2byte	0x100
    1a00:	04090203          	lb	tp,64(s2)
    1a04:	0100                	.2byte	0x100
    1a06:	04090103          	lb	sp,64(s2)
    1a0a:	0100                	.2byte	0x100
    1a0c:	04090103          	lb	sp,64(s2)
    1a10:	0100                	.2byte	0x100
    1a12:	04090203          	lb	tp,64(s2)
    1a16:	0100                	.2byte	0x100
    1a18:	04090103          	lb	sp,64(s2)
    1a1c:	0100                	.2byte	0x100
    1a1e:	04090103          	lb	sp,64(s2)
    1a22:	0100                	.2byte	0x100
    1a24:	04090103          	lb	sp,64(s2)
    1a28:	0100                	.2byte	0x100
    1a2a:	0409                	.2byte	0x409
    1a2c:	0000                	.2byte	0x0
    1a2e:	0101                	.2byte	0x101

Disassembly of section .debug_line_str:

00000000 <.debug_line_str>:
   0:	6d6f682f          	.4byte	0x6d6f682f
   4:	2f65                	.2byte	0x2f65
   6:	6275                	.2byte	0x6275
   8:	6e75                	.2byte	0x6e75
   a:	7574                	.2byte	0x7574
   c:	62616c2f          	.4byte	0x62616c2f
  10:	2f36                	.2byte	0x2f36
  12:	616c                	.2byte	0x616c
  14:	2d62                	.2byte	0x2d62
  16:	736f6c77          	.4byte	0x736f6c77
  1a:	625f 7361 6c65      	.byte	0x5f, 0x62, 0x61, 0x73, 0x65, 0x6c
  20:	6e69                	.2byte	0x6e69
  22:	2f65                	.2byte	0x2f65
  24:	6574                	.2byte	0x6574
  26:	65627473          	csrrci	s0,0x656,4
  2a:	636e                	.2byte	0x636e
  2c:	2f68                	.2byte	0x2f68
  2e:	626d6f63          	bltu	s10,t1,66c <_fstack+0x6c>
  32:	6e69                	.2byte	0x6e69
  34:	7565                	.2byte	0x7565
  36:	7261                	.2byte	0x7261
  38:	0074                	.2byte	0x74
  3a:	2e2e                	.2byte	0x2e2e
  3c:	2f2e2e2f          	.4byte	0x2f2e2e2f
  40:	6966                	.2byte	0x6966
  42:	6d72                	.2byte	0x6d72
  44:	65726177          	.4byte	0x65726177
  48:	6300                	.2byte	0x6300
  4a:	7472                	.2byte	0x7472
  4c:	5f30                	.2byte	0x5f30
  4e:	6576                	.2byte	0x6576
  50:	2e78                	.2byte	0x2e78
  52:	2e2e0053          	.4byte	0x2e2e0053
  56:	2f2e2e2f          	.4byte	0x2f2e2e2f
  5a:	6966                	.2byte	0x6966
  5c:	6d72                	.2byte	0x6d72
  5e:	65726177          	.4byte	0x65726177
  62:	7273692f          	.4byte	0x7273692f
  66:	632e                	.2byte	0x632e
  68:	2e00                	.2byte	0x2e00
  6a:	2f2e                	.2byte	0x2f2e
  6c:	2e2e                	.2byte	0x2e2e
  6e:	7269662f          	.4byte	0x7269662f
  72:	776d                	.2byte	0x776d
  74:	7261                	.2byte	0x7261
  76:	2f65                	.2byte	0x2f65
  78:	7768                	.2byte	0x7768
  7a:	2f00                	.2byte	0x2f00
  7c:	2f74706f          	j	47b72 <_fstack+0x47572>
  80:	6972                	.2byte	0x6972
  82:	2f766373          	csrrsi	t1,0x2f7,12
  86:	696c                	.2byte	0x696c
  88:	2f62                	.2byte	0x2f62
  8a:	2f636367          	.4byte	0x2f636367
  8e:	6972                	.2byte	0x6972
  90:	33766373          	csrrsi	t1,mhpmevent23,12
  94:	2d32                	.2byte	0x2d32
  96:	6e75                	.2byte	0x6e75
  98:	776f6e6b          	.4byte	0x776f6e6b
  9c:	2d6e                	.2byte	0x2d6e
  9e:	6c65                	.2byte	0x6c65
  a0:	2f66                	.2byte	0x2f66
  a2:	3231                	.2byte	0x3231
  a4:	312e                	.2byte	0x312e
  a6:	302e                	.2byte	0x302e
  a8:	636e692f          	.4byte	0x636e692f
  ac:	756c                	.2byte	0x756c
  ae:	6564                	.2byte	0x6564
  b0:	7300                	.2byte	0x7300
  b2:	7379                	.2byte	0x7379
  b4:	6574                	.2byte	0x6574
  b6:	2e6d                	.2byte	0x2e6d
  b8:	0068                	.2byte	0x68
  ba:	6d6d6f63          	bltu	s10,s6,798 <_fstack+0x198>
  be:	682e6e6f          	jal	t3,e6740 <_fstack+0xe6140>
  c2:	6300                	.2byte	0x6300
  c4:	682e7273          	csrrci	tp,0x682,28
  c8:	6900                	.2byte	0x6900
  ca:	7172                	.2byte	0x7172
  cc:	765f 7865 682e      	.byte	0x5f, 0x76, 0x65, 0x78, 0x2e, 0x68
  d2:	7300                	.2byte	0x7300
  d4:	6474                	.2byte	0x6474
  d6:	6e69                	.2byte	0x6e69
  d8:	2d74                	.2byte	0x2d74
  da:	2e636367          	.4byte	0x2e636367
  de:	0068                	.2byte	0x68
  e0:	626d6f63          	bltu	s10,t1,71e <_fstack+0x11e>
  e4:	6e69                	.2byte	0x6e69
  e6:	7565                	.2byte	0x7565
  e8:	7261                	.2byte	0x7261
  ea:	2e74                	.2byte	0x2e74
  ec:	6f630063          	beq	t1,s6,7cc <_fstack+0x1cc>
  f0:	626d                	.2byte	0x626d
  f2:	6e69                	.2byte	0x6e69
  f4:	7565                	.2byte	0x7565
  f6:	7261                	.2byte	0x7261
  f8:	2e74                	.2byte	0x2e74
  fa:	0068                	.2byte	0x68
  fc:	626d6f63          	bltu	s10,t1,73a <_fstack+0x13a>
 100:	6e69                	.2byte	0x6e69
 102:	6365                	.2byte	0x6365
 104:	746e756f          	jal	a0,e784a <_fstack+0xe724a>
 108:	7265                	.2byte	0x7265
 10a:	6c5f 5f61 6175      	.byte	0x5f, 0x6c, 0x61, 0x5f, 0x75, 0x61
 110:	7472                	.2byte	0x7472
 112:	632e                	.2byte	0x632e
 114:	7300                	.2byte	0x7300
 116:	7574                	.2byte	0x7574
 118:	2e62                	.2byte	0x2e62
 11a:	742f0063          	beq	t5,sp,85a <_fstack+0x25a>
 11e:	706d                	.2byte	0x706d
 120:	5f76722f          	.4byte	0x5f76722f
 124:	2f636367          	.4byte	0x2f636367
 128:	6972                	.2byte	0x6972
 12a:	2d766373          	csrrsi	t1,0x2d7,12
 12e:	2d756e67          	.4byte	0x2d756e67
 132:	6f74                	.2byte	0x6f74
 134:	68636c6f          	jal	s8,367ba <_fstack+0x361ba>
 138:	6961                	.2byte	0x6961
 13a:	2f6e                	.2byte	0x2f6e
 13c:	7562                	.2byte	0x7562
 13e:	6c69                	.2byte	0x6c69
 140:	2d64                	.2byte	0x2d64
 142:	2d636367          	.4byte	0x2d636367
 146:	656e                	.2byte	0x656e
 148:	62696c77          	.4byte	0x62696c77
 14c:	732d                	.2byte	0x732d
 14e:	6174                	.2byte	0x6174
 150:	2f326567          	.4byte	0x2f326567
 154:	6972                	.2byte	0x6972
 156:	33766373          	csrrsi	t1,mhpmevent23,12
 15a:	2d32                	.2byte	0x2d32
 15c:	6e75                	.2byte	0x6e75
 15e:	776f6e6b          	.4byte	0x776f6e6b
 162:	2d6e                	.2byte	0x2d6e
 164:	6c65                	.2byte	0x6c65
 166:	2f66                	.2byte	0x2f66
 168:	696c                	.2byte	0x696c
 16a:	6762                	.2byte	0x6762
 16c:	2f006363          	bltu	zero,a6,452 <_ebss+0x2b2>
 170:	6d74                	.2byte	0x6d74
 172:	2f70                	.2byte	0x2f70
 174:	7672                	.2byte	0x7672
 176:	675f 6363 722f      	.byte	0x5f, 0x67, 0x63, 0x63, 0x2f, 0x72
 17c:	7369                	.2byte	0x7369
 17e:	672d7663          	bgeu	s10,s2,7ea <_fstack+0x1ea>
 182:	756e                	.2byte	0x756e
 184:	742d                	.2byte	0x742d
 186:	636c6f6f          	jal	t5,c67bc <_fstack+0xc61bc>
 18a:	6168                	.2byte	0x6168
 18c:	6e69                	.2byte	0x6e69
 18e:	6363672f          	.4byte	0x6363672f
 192:	62696c2f          	.4byte	0x62696c2f
 196:	2f636367          	.4byte	0x2f636367
 19a:	666e6f63          	bltu	t3,t1,818 <_fstack+0x218>
 19e:	6769                	.2byte	0x6769
 1a0:	7369722f          	.4byte	0x7369722f
 1a4:	6d007663          	bgeu	zero,a6,870 <_fstack+0x270>
 1a8:	6c75                	.2byte	0x6c75
 1aa:	6964                	.2byte	0x6964
 1ac:	00532e33          	slt	t3,t1,t0

Disassembly of section .debug_info:

00000000 <.debug_info>:
   0:	0021                	.2byte	0x21
   2:	0000                	.2byte	0x0
   4:	0005                	.2byte	0x5
   6:	0401                	.2byte	0x401
   8:	0000                	.2byte	0x0
   a:	0000                	.2byte	0x0
   c:	0001                	.2byte	0x1
   e:	0000                	.2byte	0x0
  10:	0000                	.2byte	0x0
  12:	0000                	.2byte	0x0
  14:	e410                	.2byte	0xe410
  16:	0002                	.2byte	0x2
  18:	0000                	.2byte	0x0
  1a:	1a00                	.2byte	0x1a00
  1c:	0000                	.2byte	0x0
  1e:	5400                	.2byte	0x5400
  20:	0000                	.2byte	0x0
  22:	0100                	.2byte	0x100
  24:	9f80                	.2byte	0x9f80
  26:	0001                	.2byte	0x1
  28:	0500                	.2byte	0x500
  2a:	0100                	.2byte	0x100
  2c:	1404                	.2byte	0x1404
  2e:	0000                	.2byte	0x0
  30:	0800                	.2byte	0x800
  32:	00dc                	.2byte	0xdc
  34:	0000                	.2byte	0x0
  36:	541d                	.2byte	0x541d
  38:	0000                	.2byte	0x0
  3a:	0000                	.2byte	0x0
  3c:	0000                	.2byte	0x0
  3e:	4800                	.2byte	0x4800
  40:	0001                	.2byte	0x1
  42:	5c10                	.2byte	0x5c10
  44:	0001                	.2byte	0x1
  46:	0a00                	.2byte	0xa00
  48:	0002                	.2byte	0x2
  4a:	0100                	.2byte	0x100
  4c:	0601                	.2byte	0x601
  4e:	00bd                	.2byte	0xbd
  50:	0000                	.2byte	0x0
  52:	0201                	.2byte	0x201
  54:	7a05                	.2byte	0x7a05
  56:	0001                	.2byte	0x1
  58:	0100                	.2byte	0x100
  5a:	0504                	.2byte	0x504
  5c:	016c                	.2byte	0x16c
  5e:	0000                	.2byte	0x0
  60:	0801                	.2byte	0x801
  62:	6705                	.2byte	0x6705
  64:	0001                	.2byte	0x1
  66:	0100                	.2byte	0x100
  68:	0801                	.2byte	0x801
  6a:	000000bb          	.4byte	0xbb
  6e:	0201                	.2byte	0x201
  70:	0000c907          	.4byte	0xc907
  74:	0900                	.2byte	0x900
  76:	0184                	.2byte	0x184
  78:	0000                	.2byte	0x0
  7a:	3406                	.2byte	0x3406
  7c:	00005c1b          	.4byte	0x5c1b
  80:	0100                	.2byte	0x100
  82:	0704                	.2byte	0x704
  84:	0144                	.2byte	0x144
  86:	0000                	.2byte	0x0
  88:	0801                	.2byte	0x801
  8a:	00013f07          	.4byte	0x13f07
  8e:	0a00                	.2byte	0xa00
  90:	0504                	.2byte	0x504
  92:	6e69                	.2byte	0x6e69
  94:	0074                	.2byte	0x74
  96:	0401                	.2byte	0x401
  98:	00014907          	.4byte	0x14907
  9c:	0b00                	.2byte	0xb00
  9e:	000000b3          	add	ra,zero,zero
  a2:	1405                	.2byte	0x1405
  a4:	500a                	.2byte	0x500a
  a6:	0000                	.2byte	0x0
  a8:	0500                	.2byte	0x500
  aa:	00010003          	lb	zero,0(sp)
  ae:	0300                	.2byte	0x300
  b0:	007c                	.2byte	0x7c
  b2:	0000                	.2byte	0x0
  b4:	6a0d                	.2byte	0x6a0d
  b6:	0000                	.2byte	0x0
  b8:	9a00                	.2byte	0x9a00
  ba:	0000                	.2byte	0x0
  bc:	0400                	.2byte	0x400
  be:	0300                	.2byte	0x300
  c0:	00a9                	.2byte	0xa9
  c2:	0000                	.2byte	0x0
  c4:	6a0a                	.2byte	0x6a0a
  c6:	0000                	.2byte	0x0
  c8:	aa00                	.2byte	0xaa00
  ca:	0000                	.2byte	0x0
  cc:	0400                	.2byte	0x400
  ce:	0c00                	.2byte	0xc00
  d0:	7369                	.2byte	0x7369
  d2:	0072                	.2byte	0x72
  d4:	1705                	.2byte	0x1705
  d6:	3806                	.2byte	0x3806
  d8:	0002                	.2byte	0x2
  da:	6c10                	.2byte	0x6c10
  dc:	0000                	.2byte	0x0
  de:	0100                	.2byte	0x100
  e0:	df9c                	.2byte	0xdf9c
  e2:	0000                	.2byte	0x0
  e4:	0200                	.2byte	0x200
  e6:	0175                	.2byte	0x175
  e8:	0000                	.2byte	0x0
  ea:	2005                	.2byte	0x2005
  ec:	500e                	.2byte	0x500e
  ee:	0000                	.2byte	0x0
  f0:	0200                	.2byte	0x200
  f2:	6c91                	.2byte	0x6c91
  f4:	620d                	.2byte	0x620d
  f6:	6675                	.2byte	0x6675
  f8:	0500                	.2byte	0x500
  fa:	0921                	.2byte	0x921
  fc:	006a                	.2byte	0x6a
  fe:	0000                	.2byte	0x0
 100:	9102                	.2byte	0x9102
 102:	0068                	.2byte	0x68
 104:	8d05                	.2byte	0x8d05
 106:	0001                	.2byte	0x1
 108:	2200                	.2byte	0x2200
 10a:	0071                	.2byte	0x71
 10c:	0000                	.2byte	0x0
 10e:	0210                	.2byte	0x210
 110:	1000                	.2byte	0x1000
 112:	0028                	.2byte	0x28
 114:	0000                	.2byte	0x0
 116:	9c01                	.2byte	0x9c01
 118:	00000107          	.4byte	0x107
 11c:	9102                	.2byte	0x9102
 11e:	0001                	.2byte	0x1
 120:	0400                	.2byte	0x400
 122:	0f24                	.2byte	0xf24
 124:	0071                	.2byte	0x71
 126:	0000                	.2byte	0x0
 128:	9102                	.2byte	0x9102
 12a:	006c                	.2byte	0x6c
 12c:	3305                	.2byte	0x3305
 12e:	0001                	.2byte	0x1
 130:	1600                	.2byte	0x1600
 132:	0071                	.2byte	0x71
 134:	0000                	.2byte	0x0
 136:	01e8                	.2byte	0x1e8
 138:	1000                	.2byte	0x1000
 13a:	0028                	.2byte	0x28
 13c:	0000                	.2byte	0x0
 13e:	9c01                	.2byte	0x9c01
 140:	0000012f          	.4byte	0x12f
 144:	3a02                	.2byte	0x3a02
 146:	0001                	.2byte	0x1
 148:	0400                	.2byte	0x400
 14a:	0f18                	.2byte	0xf18
 14c:	0071                	.2byte	0x71
 14e:	0000                	.2byte	0x0
 150:	9102                	.2byte	0x9102
 152:	006c                	.2byte	0x6c
 154:	600e                	.2byte	0x600e
 156:	0000                	.2byte	0x0
 158:	0300                	.2byte	0x300
 15a:	030a                	.2byte	0x30a
 15c:	b014                	.2byte	0xb014
 15e:	0001                	.2byte	0x1
 160:	3810                	.2byte	0x3810
 162:	0000                	.2byte	0x0
 164:	0100                	.2byte	0x100
 166:	559c                	.2byte	0x559c
 168:	0001                	.2byte	0x1
 16a:	0f00                	.2byte	0xf00
 16c:	0076                	.2byte	0x76
 16e:	39030a03          	lb	s4,912(t1)
 172:	0050                	.2byte	0x50
 174:	0000                	.2byte	0x0
 176:	9102                	.2byte	0x9102
 178:	006c                	.2byte	0x6c
 17a:	9810                	.2byte	0x9810
 17c:	0000                	.2byte	0x0
 17e:	0200                	.2byte	0x200
 180:	1420                	.2byte	0x1420
 182:	0180                	.2byte	0x180
 184:	1000                	.2byte	0x1000
 186:	0030                	.2byte	0x30
 188:	0000                	.2byte	0x0
 18a:	9c01                	.2byte	0x9c01
 18c:	0182                	.2byte	0x182
 18e:	0000                	.2byte	0x0
 190:	7606                	.2byte	0x7606
 192:	3300                	.2byte	0x3300
 194:	005c                	.2byte	0x5c
 196:	0000                	.2byte	0x0
 198:	9102                	.2byte	0x9102
 19a:	066c                	.2byte	0x66c
 19c:	0061                	.2byte	0x61
 19e:	5c44                	.2byte	0x5c44
 1a0:	0000                	.2byte	0x0
 1a2:	0200                	.2byte	0x200
 1a4:	6891                	.2byte	0x6891
 1a6:	0700                	.2byte	0x700
 1a8:	00000087          	.4byte	0x87
 1ac:	641c                	.2byte	0x641c
 1ae:	0001                	.2byte	0x1
 1b0:	1c10                	.2byte	0x1c10
 1b2:	0000                	.2byte	0x0
 1b4:	0100                	.2byte	0x100
 1b6:	079c                	.2byte	0x79c
 1b8:	0156                	.2byte	0x156
 1ba:	0000                	.2byte	0x0
 1bc:	480e                	.2byte	0x480e
 1be:	0001                	.2byte	0x1
 1c0:	1c10                	.2byte	0x1c10
 1c2:	0000                	.2byte	0x0
 1c4:	0100                	.2byte	0x100
 1c6:	009c                	.2byte	0x9c
 1c8:	00000433          	add	s0,zero,zero
 1cc:	0005                	.2byte	0x5
 1ce:	0401                	.2byte	0x401
 1d0:	0145                	.2byte	0x145
 1d2:	0000                	.2byte	0x0
 1d4:	dc0e                	.2byte	0xdc0e
 1d6:	0000                	.2byte	0x0
 1d8:	1d00                	.2byte	0x1d00
 1da:	00e0                	.2byte	0xe0
 1dc:	0000                	.2byte	0x0
 1de:	0000                	.2byte	0x0
 1e0:	0000                	.2byte	0x0
 1e2:	000c                	.2byte	0xc
 1e4:	0000                	.2byte	0x0
 1e6:	0000                	.2byte	0x0
 1e8:	0000                	.2byte	0x0
 1ea:	0000035b          	.4byte	0x35b
 1ee:	0102                	.2byte	0x102
 1f0:	bd06                	.2byte	0xbd06
 1f2:	0000                	.2byte	0x0
 1f4:	0200                	.2byte	0x200
 1f6:	0502                	.2byte	0x502
 1f8:	017a                	.2byte	0x17a
 1fa:	0000                	.2byte	0x0
 1fc:	0402                	.2byte	0x402
 1fe:	6c05                	.2byte	0x6c05
 200:	0001                	.2byte	0x1
 202:	0200                	.2byte	0x200
 204:	0508                	.2byte	0x508
 206:	00000167          	jalr	sp,zero # 0 <taps>
 20a:	0102                	.2byte	0x102
 20c:	bb08                	.2byte	0xbb08
 20e:	0000                	.2byte	0x0
 210:	0200                	.2byte	0x200
 212:	0702                	.2byte	0x702
 214:	00c9                	.2byte	0xc9
 216:	0000                	.2byte	0x0
 218:	0001840f          	.4byte	0x1840f
 21c:	0400                	.2byte	0x400
 21e:	1b34                	.2byte	0x1b34
 220:	005c                	.2byte	0x5c
 222:	0000                	.2byte	0x0
 224:	0402                	.2byte	0x402
 226:	00014407          	.4byte	0x14407
 22a:	0200                	.2byte	0x200
 22c:	0708                	.2byte	0x708
 22e:	0000013f 69050410 	.8byte	0x690504100000013f
 236:	746e                	.2byte	0x746e
 238:	0200                	.2byte	0x200
 23a:	0704                	.2byte	0x704
 23c:	0149                	.2byte	0x149
 23e:	0000                	.2byte	0x0
 240:	00006a07          	.4byte	0x6a07
 244:	8800                	.2byte	0x8800
 246:	0000                	.2byte	0x0
 248:	0800                	.2byte	0x800
 24a:	0071                	.2byte	0x71
 24c:	0000                	.2byte	0x0
 24e:	000a                	.2byte	0xa
 250:	eb04                	.2byte	0xeb04
 252:	0001                	.2byte	0x1
 254:	0700                	.2byte	0x700
 256:	7805                	.2byte	0x7805
 258:	0000                	.2byte	0x0
 25a:	0500                	.2byte	0x500
 25c:	00000003          	lb	zero,0(zero) # 0 <taps>
 260:	0400                	.2byte	0x400
 262:	000001f7          	.4byte	0x1f7
 266:	0508                	.2byte	0x508
 268:	0078                	.2byte	0x78
 26a:	0000                	.2byte	0x0
 26c:	0305                	.2byte	0x305
 26e:	0108                	.2byte	0x108
 270:	0000                	.2byte	0x0
 272:	9904                	.2byte	0x9904
 274:	0001                	.2byte	0x1
 276:	0900                	.2byte	0x900
 278:	7805                	.2byte	0x7805
 27a:	0000                	.2byte	0x0
 27c:	0500                	.2byte	0x500
 27e:	00002c03          	lw	s8,0(zero) # 0 <taps>
 282:	0400                	.2byte	0x400
 284:	0218                	.2byte	0x218
 286:	0000                	.2byte	0x0
 288:	050a                	.2byte	0x50a
 28a:	0078                	.2byte	0x78
 28c:	0000                	.2byte	0x0
 28e:	0305                	.2byte	0x305
 290:	0134                	.2byte	0x134
 292:	0000                	.2byte	0x0
 294:	00006a07          	.4byte	0x6a07
 298:	dc00                	.2byte	0xdc00
 29a:	0000                	.2byte	0x0
 29c:	0800                	.2byte	0x800
 29e:	0071                	.2byte	0x71
 2a0:	0000                	.2byte	0x0
 2a2:	410a000f          	.4byte	0x410a000f
 2a6:	1200                	.2byte	0x1200
 2a8:	00cc                	.2byte	0xcc
 2aa:	0000                	.2byte	0x0
 2ac:	0305                	.2byte	0x305
 2ae:	0058                	.2byte	0x58
 2b0:	0000                	.2byte	0x0
 2b2:	420a                	.2byte	0x420a
 2b4:	1700                	.2byte	0x1700
 2b6:	00cc                	.2byte	0xcc
 2b8:	0000                	.2byte	0x0
 2ba:	0305                	.2byte	0x305
 2bc:	0098                	.2byte	0x98
 2be:	0000                	.2byte	0x0
 2c0:	f004                	.2byte	0xf004
 2c2:	0001                	.2byte	0x1
 2c4:	1c00                	.2byte	0x1c00
 2c6:	cc06                	.2byte	0xcc06
 2c8:	0000                	.2byte	0x0
 2ca:	0500                	.2byte	0x500
 2cc:	00016003          	.4byte	0x16003
 2d0:	0700                	.2byte	0x700
 2d2:	006a                	.2byte	0x6a
 2d4:	0000                	.2byte	0x0
 2d6:	0119                	.2byte	0x119
 2d8:	0000                	.2byte	0x0
 2da:	7108                	.2byte	0x7108
 2dc:	0000                	.2byte	0x0
 2de:	0900                	.2byte	0x900
 2e0:	0400                	.2byte	0x400
 2e2:	00000213          	li	tp,0
 2e6:	0524                	.2byte	0x524
 2e8:	0109                	.2byte	0x109
 2ea:	0000                	.2byte	0x0
 2ec:	0305                	.2byte	0x305
 2ee:	00d8                	.2byte	0xd8
 2f0:	0000                	.2byte	0x0
 2f2:	ba11                	.2byte	0xba11
 2f4:	0001                	.2byte	0x1
 2f6:	0200                	.2byte	0x200
 2f8:	0140338b          	.4byte	0x140338b
 2fc:	0000                	.2byte	0x0
 2fe:	0508                	.2byte	0x508
 300:	3800                	.2byte	0x3800
 302:	0034                	.2byte	0x34
 304:	0000                	.2byte	0x0
 306:	9c01                	.2byte	0x9c01
 308:	00006a0b          	.4byte	0x6a0b
 30c:	0900                	.2byte	0x900
 30e:	000001bb          	.4byte	0x1bb
 312:	04983383          	.4byte	0x4983383
 316:	3800                	.2byte	0x3800
 318:	0070                	.2byte	0x70
 31a:	0000                	.2byte	0x0
 31c:	9c01                	.2byte	0x9c01
 31e:	018c                	.2byte	0x18c
 320:	0000                	.2byte	0x0
 322:	776f6c03          	.4byte	0x776f6c03
 326:	8300                	.2byte	0x8300
 328:	6a3c                	.2byte	0x6a3c
 32a:	0000                	.2byte	0x0
 32c:	0200                	.2byte	0x200
 32e:	5c91                	.2byte	0x5c91
 330:	00696803          	.4byte	0x696803
 334:	006a4583          	lbu	a1,6(s4)
 338:	0000                	.2byte	0x0
 33a:	9102                	.2byte	0x9102
 33c:	0558                	.2byte	0x558
 33e:	04bc                	.2byte	0x4bc
 340:	3800                	.2byte	0x3800
 342:	0038                	.2byte	0x38
 344:	0000                	.2byte	0x0
 346:	7001                	.2byte	0x7001
 348:	8500                	.2byte	0x8500
 34a:	00006a07          	.4byte	0x6a07
 34e:	0200                	.2byte	0x200
 350:	6c91                	.2byte	0x6c91
 352:	0000                	.2byte	0x0
 354:	d212                	.2byte	0xd212
 356:	0001                	.2byte	0x1
 358:	0200                	.2byte	0x200
 35a:	006a326f          	jal	tp,a3360 <_fstack+0xa2d60>
 35e:	0000                	.2byte	0x0
 360:	0314                	.2byte	0x314
 362:	3800                	.2byte	0x3800
 364:	0184                	.2byte	0x184
 366:	0000                	.2byte	0x0
 368:	9c01                	.2byte	0x9c01
 36a:	01f6                	.2byte	0x1f6
 36c:	0000                	.2byte	0x0
 36e:	776f6c03          	.4byte	0x776f6c03
 372:	6f00                	.2byte	0x6f00
 374:	6a40                	.2byte	0x6a40
 376:	0000                	.2byte	0x0
 378:	0200                	.2byte	0x200
 37a:	5c91                	.2byte	0x5c91
 37c:	00696803          	.4byte	0x696803
 380:	006a486f          	jal	a6,a4386 <_fstack+0xa3d86>
 384:	0000                	.2byte	0x0
 386:	9102                	.2byte	0x9102
 388:	0658                	.2byte	0x658
 38a:	0241                	.2byte	0x241
 38c:	0000                	.2byte	0x0
 38e:	0670                	.2byte	0x670
 390:	006a                	.2byte	0x6a
 392:	0000                	.2byte	0x0
 394:	9102                	.2byte	0x9102
 396:	0164                	.2byte	0x164
 398:	0069                	.2byte	0x69
 39a:	0671                	.2byte	0x671
 39c:	006a                	.2byte	0x6a
 39e:	0000                	.2byte	0x0
 3a0:	9102                	.2byte	0x9102
 3a2:	016c                	.2byte	0x16c
 3a4:	006a                	.2byte	0x6a
 3a6:	1071                	.2byte	0x1071
 3a8:	006a                	.2byte	0x6a
 3aa:	0000                	.2byte	0x0
 3ac:	9102                	.2byte	0x9102
 3ae:	0668                	.2byte	0x668
 3b0:	01c0                	.2byte	0x1c0
 3b2:	0000                	.2byte	0x0
 3b4:	0672                	.2byte	0x672
 3b6:	006a                	.2byte	0x6a
 3b8:	0000                	.2byte	0x0
 3ba:	9102                	.2byte	0x9102
 3bc:	0060                	.2byte	0x60
 3be:	0001b313          	sltiu	t1,gp,0
 3c2:	0200                	.2byte	0x200
 3c4:	0140335b          	.4byte	0x140335b
 3c8:	0000                	.2byte	0x0
 3ca:	01fc                	.2byte	0x1fc
 3cc:	3800                	.2byte	0x3800
 3ce:	0118                	.2byte	0x118
 3d0:	0000                	.2byte	0x0
 3d2:	9c01                	.2byte	0x9c01
 3d4:	025c                	.2byte	0x25c
 3d6:	0000                	.2byte	0x0
 3d8:	6901                	.2byte	0x6901
 3da:	5d00                	.2byte	0x5d00
 3dc:	6a06                	.2byte	0x6a06
 3de:	0000                	.2byte	0x0
 3e0:	0200                	.2byte	0x200
 3e2:	6c91                	.2byte	0x6c91
 3e4:	6a01                	.2byte	0x6a01
 3e6:	5e00                	.2byte	0x5e00
 3e8:	6a06                	.2byte	0x6a06
 3ea:	0000                	.2byte	0x0
 3ec:	0200                	.2byte	0x200
 3ee:	6891                	.2byte	0x6891
 3f0:	6b01                	.2byte	0x6b01
 3f2:	5f00                	.2byte	0x5f00
 3f4:	6a06                	.2byte	0x6a06
 3f6:	0000                	.2byte	0x0
 3f8:	0200                	.2byte	0x200
 3fa:	6491                	.2byte	0x6491
 3fc:	7301                	.2byte	0x7301
 3fe:	6d75                	.2byte	0x6d75
 400:	6000                	.2byte	0x6000
 402:	6a06                	.2byte	0x6a06
 404:	0000                	.2byte	0x0
 406:	0200                	.2byte	0x200
 408:	6091                	.2byte	0x6091
 40a:	6b14                	.2byte	0x6b14
 40c:	6102006b          	.4byte	0x6102006b
 410:	6a06                	.2byte	0x6a06
 412:	0000                	.2byte	0x0
 414:	0600                	.2byte	0x600
 416:	01ad                	.2byte	0x1ad
 418:	0000                	.2byte	0x0
 41a:	0f62                	.2byte	0xf62
 41c:	0071                	.2byte	0x71
 41e:	0000                	.2byte	0x0
 420:	9102                	.2byte	0x9102
 422:	005c                	.2byte	0x5c
 424:	6615                	.2byte	0x6615
 426:	7269                	.2byte	0x7269
 428:	0200                	.2byte	0x200
 42a:	0140334f          	.4byte	0x140334f
 42e:	0000                	.2byte	0x0
 430:	017c                	.2byte	0x17c
 432:	3800                	.2byte	0x3800
 434:	0080                	.2byte	0x80
 436:	0000                	.2byte	0x0
 438:	9c01                	.2byte	0x9c01
 43a:	028d                	.2byte	0x28d
 43c:	0000                	.2byte	0x0
 43e:	9005                	.2byte	0x9005
 440:	0001                	.2byte	0x1
 442:	5438                	.2byte	0x5438
 444:	0000                	.2byte	0x0
 446:	0100                	.2byte	0x100
 448:	0069                	.2byte	0x69
 44a:	0a51                	.2byte	0xa51
 44c:	006a                	.2byte	0x6a
 44e:	0000                	.2byte	0x0
 450:	9102                	.2byte	0x9102
 452:	006c                	.2byte	0x6c
 454:	1600                	.2byte	0x1600
 456:	00000237          	lui	tp,0x0
 45a:	4202                	.2byte	0x4202
 45c:	6a32                	.2byte	0x6a32
 45e:	0000                	.2byte	0x0
 460:	8c00                	.2byte	0x8c00
 462:	0000                	.2byte	0x0
 464:	f038                	.2byte	0xf038
 466:	0000                	.2byte	0x0
 468:	0100                	.2byte	0x100
 46a:	f59c                	.2byte	0xf59c
 46c:	0002                	.2byte	0x2
 46e:	1700                	.2byte	0x1700
 470:	00000247          	.4byte	0x247
 474:	4202                	.2byte	0x4202
 476:	6a40                	.2byte	0x6a40
 478:	0000                	.2byte	0x0
 47a:	0200                	.2byte	0x200
 47c:	5c91                	.2byte	0x5c91
 47e:	c506                	.2byte	0xc506
 480:	0001                	.2byte	0x1
 482:	4800                	.2byte	0x4800
 484:	6a06                	.2byte	0x6a06
 486:	0000                	.2byte	0x0
 488:	0200                	.2byte	0x200
 48a:	6891                	.2byte	0x6891
 48c:	a018                	.2byte	0xa018
 48e:	0000                	.2byte	0x0
 490:	4c38                	.2byte	0x4c38
 492:	0000                	.2byte	0x0
 494:	de00                	.2byte	0xde00
 496:	0002                	.2byte	0x2
 498:	0100                	.2byte	0x100
 49a:	0069                	.2byte	0x69
 49c:	006a0a43          	.4byte	0x6a0a43
 4a0:	0000                	.2byte	0x0
 4a2:	9102                	.2byte	0x9102
 4a4:	006c                	.2byte	0x6c
 4a6:	fc05                	.2byte	0xfc05
 4a8:	0000                	.2byte	0x0
 4aa:	6838                	.2byte	0x6838
 4ac:	0000                	.2byte	0x0
 4ae:	0100                	.2byte	0x100
 4b0:	0069                	.2byte	0x69
 4b2:	0a49                	.2byte	0xa49
 4b4:	006a                	.2byte	0x6a
 4b6:	0000                	.2byte	0x0
 4b8:	9102                	.2byte	0x9102
 4ba:	0064                	.2byte	0x64
 4bc:	1900                	.2byte	0x1900
 4be:	01a5                	.2byte	0x1a5
 4c0:	0000                	.2byte	0x0
 4c2:	3b02                	.2byte	0x3b02
 4c4:	00002433          	sltz	s0,zero
 4c8:	6838                	.2byte	0x6838
 4ca:	0000                	.2byte	0x0
 4cc:	0100                	.2byte	0x100
 4ce:	229c                	.2byte	0x229c
 4d0:	05000003          	lb	zero,80(zero) # 50 <inputsignal+0x24>
 4d4:	0030                	.2byte	0x30
 4d6:	3800                	.2byte	0x3800
 4d8:	0048                	.2byte	0x48
 4da:	0000                	.2byte	0x0
 4dc:	6901                	.2byte	0x6901
 4de:	3c00                	.2byte	0x3c00
 4e0:	6a0a                	.2byte	0x6a0a
 4e2:	0000                	.2byte	0x0
 4e4:	0200                	.2byte	0x200
 4e6:	6c91                	.2byte	0x6c91
 4e8:	0000                	.2byte	0x0
 4ea:	a90c                	.2byte	0xa90c
 4ec:	0000                	.2byte	0x0
 4ee:	2c00                	.2byte	0x2c00
 4f0:	00006a2f          	.4byte	0x6a2f
 4f4:	cc00                	.2byte	0xcc00
 4f6:	0012                	.2byte	0x12
 4f8:	7410                	.2byte	0x7410
 4fa:	0000                	.2byte	0x0
 4fc:	0100                	.2byte	0x100
 4fe:	609c                	.2byte	0x609c
 500:	01000003          	lb	zero,16(zero) # 10 <taps+0x10>
 504:	756e                	.2byte	0x756e
 506:	006d                	.2byte	0x6d
 508:	092e                	.2byte	0x92e
 50a:	006a                	.2byte	0x6a
 50c:	0000                	.2byte	0x0
 50e:	9102                	.2byte	0x9102
 510:	056c                	.2byte	0x56c
 512:	1300                	.2byte	0x1300
 514:	1000                	.2byte	0x1000
 516:	0020                	.2byte	0x20
 518:	0000                	.2byte	0x0
 51a:	6901                	.2byte	0x6901
 51c:	3000                	.2byte	0x3000
 51e:	6a11                	.2byte	0x6a11
 520:	0000                	.2byte	0x0
 522:	0200                	.2byte	0x200
 524:	6891                	.2byte	0x6891
 526:	0000                	.2byte	0x0
 528:	dc0c                	.2byte	0xdc0c
 52a:	0001                	.2byte	0x1
 52c:	1f00                	.2byte	0x1f00
 52e:	9e30                	.2byte	0x9e30
 530:	58000003          	lb	zero,1408(zero) # 580 <_ebss+0x3e0>
 534:	0012                	.2byte	0x12
 536:	7410                	.2byte	0x7410
 538:	0000                	.2byte	0x0
 53a:	0100                	.2byte	0x100
 53c:	9e9c                	.2byte	0x9e9c
 53e:	01000003          	lb	zero,16(zero) # 10 <taps+0x10>
 542:	756e                	.2byte	0x756e
 544:	006d                	.2byte	0x6d
 546:	0721                	.2byte	0x721
 548:	039e                	.2byte	0x39e
 54a:	0000                	.2byte	0x0
 54c:	9102                	.2byte	0x9102
 54e:	128c056f          	jal	a0,c0676 <_fstack+0xc0076>
 552:	1000                	.2byte	0x1000
 554:	0020                	.2byte	0x20
 556:	0000                	.2byte	0x0
 558:	6901                	.2byte	0x6901
 55a:	2300                	.2byte	0x2300
 55c:	6a11                	.2byte	0x6a11
 55e:	0000                	.2byte	0x0
 560:	0200                	.2byte	0x200
 562:	6891                	.2byte	0x6891
 564:	0000                	.2byte	0x0
 566:	0102                	.2byte	0x102
 568:	c408                	.2byte	0xc408
 56a:	0000                	.2byte	0x0
 56c:	1a00                	.2byte	0x1a00
 56e:	039e                	.2byte	0x39e
 570:	0000                	.2byte	0x0
 572:	2509                	.2byte	0x2509
 574:	0002                	.2byte	0x2
 576:	1800                	.2byte	0x1800
 578:	0430                	.2byte	0x430
 57a:	0012                	.2byte	0x12
 57c:	5410                	.2byte	0x5410
 57e:	0000                	.2byte	0x0
 580:	0100                	.2byte	0x100
 582:	cc9c                	.2byte	0xcc9c
 584:	03000003          	lb	zero,48(zero) # 30 <inputsignal+0x4>
 588:	4e180073          	.4byte	0x4e180073
 58c:	03cc                	.2byte	0x3cc
 58e:	0000                	.2byte	0x0
 590:	9102                	.2byte	0x9102
 592:	006c                	.2byte	0x6c
 594:	0003a50b          	.4byte	0x3a50b
 598:	0900                	.2byte	0x900
 59a:	00000203          	lb	tp,0(zero) # 0 <taps>
 59e:	300e                	.2byte	0x300e
 5a0:	119c                	.2byte	0x119c
 5a2:	1000                	.2byte	0x1000
 5a4:	0068                	.2byte	0x68
 5a6:	0000                	.2byte	0x0
 5a8:	9c01                	.2byte	0x9c01
 5aa:	000003f3          	.4byte	0x3f3
 5ae:	0e006303          	.4byte	0xe006303
 5b2:	9e45                	.2byte	0x9e45
 5b4:	02000003          	lb	zero,32(zero) # 20 <taps+0x20>
 5b8:	6f91                	.2byte	0x6f91
 5ba:	1b00                	.2byte	0x1b00
 5bc:	007c                	.2byte	0x7c
 5be:	0000                	.2byte	0x0
 5c0:	0802                	.2byte	0x802
 5c2:	5430                	.2byte	0x5430
 5c4:	0011                	.2byte	0x11
 5c6:	4810                	.2byte	0x4810
 5c8:	0000                	.2byte	0x0
 5ca:	0100                	.2byte	0x100
 5cc:	169c                	.2byte	0x169c
 5ce:	0004                	.2byte	0x4
 5d0:	0300                	.2byte	0x300
 5d2:	006e                	.2byte	0x6e
 5d4:	3f08                	.2byte	0x3f08
 5d6:	006a                	.2byte	0x6a
 5d8:	0000                	.2byte	0x0
 5da:	9102                	.2byte	0x9102
 5dc:	006c                	.2byte	0x6c
 5de:	870d                	.2byte	0x870d
 5e0:	0000                	.2byte	0x0
 5e2:	1c00                	.2byte	0x1c00
 5e4:	02c0                	.2byte	0x2c0
 5e6:	1000                	.2byte	0x1000
 5e8:	001c                	.2byte	0x1c
 5ea:	0000                	.2byte	0x0
 5ec:	9c01                	.2byte	0x9c01
 5ee:	560d                	.2byte	0x560d
 5f0:	0001                	.2byte	0x1
 5f2:	0e00                	.2byte	0xe00
 5f4:	02a4                	.2byte	0x2a4
 5f6:	1000                	.2byte	0x1000
 5f8:	001c                	.2byte	0x1c
 5fa:	0000                	.2byte	0x0
 5fc:	9c01                	.2byte	0x9c01
 5fe:	9100                	.2byte	0x9100
 600:	0004                	.2byte	0x4
 602:	0500                	.2byte	0x500
 604:	0100                	.2byte	0x100
 606:	4204                	.2byte	0x4204
 608:	0d000003          	lb	zero,208(zero) # d0 <B+0x38>
 60c:	00dc                	.2byte	0xdc
 60e:	0000                	.2byte	0x0
 610:	fc1d                	.2byte	0xfc1d
 612:	0000                	.2byte	0x0
 614:	0000                	.2byte	0x0
 616:	0000                	.2byte	0x0
 618:	dc00                	.2byte	0xdc00
 61a:	0002                	.2byte	0x2
 61c:	7810                	.2byte	0x7810
 61e:	000e                	.2byte	0xe
 620:	9200                	.2byte	0x9200
 622:	0009                	.2byte	0x9
 624:	0300                	.2byte	0x300
 626:	0601                	.2byte	0x601
 628:	00bd                	.2byte	0xbd
 62a:	0000                	.2byte	0x0
 62c:	7a050203          	lb	tp,1952(a0)
 630:	0001                	.2byte	0x1
 632:	0300                	.2byte	0x300
 634:	0504                	.2byte	0x504
 636:	016c                	.2byte	0x16c
 638:	0000                	.2byte	0x0
 63a:	67050803          	lb	a6,1648(a0)
 63e:	0001                	.2byte	0x1
 640:	0300                	.2byte	0x300
 642:	0801                	.2byte	0x801
 644:	000000bb          	.4byte	0xbb
 648:	c9070203          	lb	tp,-880(a4)
 64c:	0000                	.2byte	0x0
 64e:	0e00                	.2byte	0xe00
 650:	0184                	.2byte	0x184
 652:	0000                	.2byte	0x0
 654:	5c1b3407          	.4byte	0x5c1b3407
 658:	0000                	.2byte	0x0
 65a:	0300                	.2byte	0x300
 65c:	0704                	.2byte	0x704
 65e:	0144                	.2byte	0x144
 660:	0000                	.2byte	0x0
 662:	3f070803          	lb	a6,1008(a4)
 666:	0001                	.2byte	0x1
 668:	0f00                	.2byte	0xf00
 66a:	0504                	.2byte	0x504
 66c:	6e69                	.2byte	0x6e69
 66e:	0074                	.2byte	0x74
 670:	49070403          	lb	s0,1168(a4)
 674:	0001                	.2byte	0x1
 676:	0800                	.2byte	0x800
 678:	01ba                	.2byte	0x1ba
 67a:	0000                	.2byte	0x0
 67c:	8811                	.2byte	0x8811
 67e:	0000                	.2byte	0x0
 680:	8800                	.2byte	0x8800
 682:	0000                	.2byte	0x0
 684:	0700                	.2byte	0x700
 686:	0900                	.2byte	0x900
 688:	006a                	.2byte	0x6a
 68a:	0000                	.2byte	0x0
 68c:	b308                	.2byte	0xb308
 68e:	0001                	.2byte	0x1
 690:	1000                	.2byte	0x1000
 692:	0088                	.2byte	0x88
 694:	0000                	.2byte	0x0
 696:	009d                	.2byte	0x9d
 698:	0000                	.2byte	0x0
 69a:	66100007          	.4byte	0x66100007
 69e:	7269                	.2byte	0x7269
 6a0:	0600                	.2byte	0x600
 6a2:	00880d0f          	.4byte	0x880d0f
 6a6:	0000                	.2byte	0x0
 6a8:	000000af          	.4byte	0xaf
 6ac:	6a110007          	.4byte	0x6a110007
 6b0:	0002                	.2byte	0x2
 6b2:	0600                	.2byte	0x600
 6b4:	061d                	.2byte	0x61d
 6b6:	0488                	.2byte	0x488
 6b8:	1000                	.2byte	0x1000
 6ba:	0ccc                	.2byte	0xccc
 6bc:	0000                	.2byte	0x0
 6be:	9c01                	.2byte	0x9c01
 6c0:	037a                	.2byte	0x37a
 6c2:	0000                	.2byte	0x0
 6c4:	3a05                	.2byte	0x3a05
 6c6:	0001                	.2byte	0x1
 6c8:	0600                	.2byte	0x600
 6ca:	0920                	.2byte	0x920
 6cc:	006a                	.2byte	0x6a
 6ce:	0000                	.2byte	0x0
 6d0:	7f909103          	lh	sp,2041(ra)
 6d4:	6a12                	.2byte	0x6a12
 6d6:	0600                	.2byte	0x600
 6d8:	063a                	.2byte	0x63a
 6da:	006a                	.2byte	0x6a
 6dc:	0000                	.2byte	0x0
 6de:	6b04                	.2byte	0x6b04
 6e0:	8300                	.2byte	0x8300
 6e2:	6a06                	.2byte	0x6a06
 6e4:	0000                	.2byte	0x0
 6e6:	0300                	.2byte	0x300
 6e8:	8c91                	.2byte	0x8c91
 6ea:	057f                	.2byte	0x57f
 6ec:	00000253          	.4byte	0x253
 6f0:	8506                	.2byte	0x8506
 6f2:	00008807          	.4byte	0x8807
 6f6:	0300                	.2byte	0x300
 6f8:	8891                	.2byte	0x8891
 6fa:	057f                	.2byte	0x57f
 6fc:	0000025b          	.4byte	0x25b
 700:	b906                	.2byte	0xb906
 702:	00008807          	.4byte	0x8807
 706:	0300                	.2byte	0x300
 708:	8491                	.2byte	0x8491
 70a:	057f                	.2byte	0x57f
 70c:	0296                	.2byte	0x296
 70e:	0000                	.2byte	0x0
 710:	ff06                	.2byte	0xff06
 712:	00008807          	.4byte	0x8807
 716:	0300                	.2byte	0x300
 718:	8091                	.2byte	0x8091
 71a:	017f                	.2byte	0x17f
 71c:	0a50                	.2byte	0xa50
 71e:	1000                	.2byte	0x1000
 720:	0020                	.2byte	0x20
 722:	0000                	.2byte	0x0
 724:	0136                	.2byte	0x136
 726:	0000                	.2byte	0x0
 728:	6904                	.2byte	0x6904
 72a:	b100                	.2byte	0xb100
 72c:	6a0a                	.2byte	0x6a0a
 72e:	0000                	.2byte	0x0
 730:	0200                	.2byte	0x200
 732:	6c91                	.2byte	0x6c91
 734:	0100                	.2byte	0x100
 736:	0aa4                	.2byte	0xaa4
 738:	1000                	.2byte	0x1000
 73a:	0020                	.2byte	0x20
 73c:	0000                	.2byte	0x0
 73e:	0150                	.2byte	0x150
 740:	0000                	.2byte	0x0
 742:	6904                	.2byte	0x6904
 744:	ba00                	.2byte	0xba00
 746:	6a0a                	.2byte	0x6a0a
 748:	0000                	.2byte	0x0
 74a:	0200                	.2byte	0x200
 74c:	6891                	.2byte	0x6891
 74e:	0100                	.2byte	0x100
 750:	0adc                	.2byte	0xadc
 752:	1000                	.2byte	0x1000
 754:	0020                	.2byte	0x20
 756:	0000                	.2byte	0x0
 758:	016a                	.2byte	0x16a
 75a:	0000                	.2byte	0x0
 75c:	6904                	.2byte	0x6904
 75e:	be00                	.2byte	0xbe00
 760:	6a0a                	.2byte	0x6a0a
 762:	0000                	.2byte	0x0
 764:	0200                	.2byte	0x200
 766:	6491                	.2byte	0x6491
 768:	0100                	.2byte	0x100
 76a:	0b18                	.2byte	0xb18
 76c:	1000                	.2byte	0x1000
 76e:	0020                	.2byte	0x20
 770:	0000                	.2byte	0x0
 772:	0184                	.2byte	0x184
 774:	0000                	.2byte	0x0
 776:	6904                	.2byte	0x6904
 778:	c200                	.2byte	0xc200
 77a:	6a0a                	.2byte	0x6a0a
 77c:	0000                	.2byte	0x0
 77e:	0200                	.2byte	0x200
 780:	6091                	.2byte	0x6091
 782:	0100                	.2byte	0x100
 784:	0b54                	.2byte	0xb54
 786:	1000                	.2byte	0x1000
 788:	0020                	.2byte	0x20
 78a:	0000                	.2byte	0x0
 78c:	019e                	.2byte	0x19e
 78e:	0000                	.2byte	0x0
 790:	6904                	.2byte	0x6904
 792:	c600                	.2byte	0xc600
 794:	6a0a                	.2byte	0x6a0a
 796:	0000                	.2byte	0x0
 798:	0200                	.2byte	0x200
 79a:	5c91                	.2byte	0x5c91
 79c:	0100                	.2byte	0x100
 79e:	0b90                	.2byte	0xb90
 7a0:	1000                	.2byte	0x1000
 7a2:	0020                	.2byte	0x20
 7a4:	0000                	.2byte	0x0
 7a6:	01b8                	.2byte	0x1b8
 7a8:	0000                	.2byte	0x0
 7aa:	6904                	.2byte	0x6904
 7ac:	ca00                	.2byte	0xca00
 7ae:	6a0a                	.2byte	0x6a0a
 7b0:	0000                	.2byte	0x0
 7b2:	0200                	.2byte	0x200
 7b4:	5891                	.2byte	0x5891
 7b6:	0100                	.2byte	0x100
 7b8:	0bcc                	.2byte	0xbcc
 7ba:	1000                	.2byte	0x1000
 7bc:	0020                	.2byte	0x20
 7be:	0000                	.2byte	0x0
 7c0:	01d2                	.2byte	0x1d2
 7c2:	0000                	.2byte	0x0
 7c4:	6904                	.2byte	0x6904
 7c6:	ce00                	.2byte	0xce00
 7c8:	6a0a                	.2byte	0x6a0a
 7ca:	0000                	.2byte	0x0
 7cc:	0200                	.2byte	0x200
 7ce:	5491                	.2byte	0x5491
 7d0:	0100                	.2byte	0x100
 7d2:	0bfc                	.2byte	0xbfc
 7d4:	1000                	.2byte	0x1000
 7d6:	0020                	.2byte	0x20
 7d8:	0000                	.2byte	0x0
 7da:	01ec                	.2byte	0x1ec
 7dc:	0000                	.2byte	0x0
 7de:	6904                	.2byte	0x6904
 7e0:	d100                	.2byte	0xd100
 7e2:	6a0a                	.2byte	0x6a0a
 7e4:	0000                	.2byte	0x0
 7e6:	0200                	.2byte	0x200
 7e8:	5091                	.2byte	0x5091
 7ea:	0100                	.2byte	0x100
 7ec:	0cf0                	.2byte	0xcf0
 7ee:	1000                	.2byte	0x1000
 7f0:	0020                	.2byte	0x20
 7f2:	0000                	.2byte	0x0
 7f4:	0206                	.2byte	0x206
 7f6:	0000                	.2byte	0x0
 7f8:	6904                	.2byte	0x6904
 7fa:	ef00                	.2byte	0xef00
 7fc:	6a0a                	.2byte	0x6a0a
 7fe:	0000                	.2byte	0x0
 800:	0200                	.2byte	0x200
 802:	4c91                	.2byte	0x4c91
 804:	0100                	.2byte	0x100
 806:	0d44                	.2byte	0xd44
 808:	1000                	.2byte	0x1000
 80a:	0020                	.2byte	0x20
 80c:	0000                	.2byte	0x0
 80e:	0220                	.2byte	0x220
 810:	0000                	.2byte	0x0
 812:	6902                	.2byte	0x6902
 814:	0000                	.2byte	0x0
 816:	6a01                	.2byte	0x6a01
 818:	0000                	.2byte	0x0
 81a:	0200                	.2byte	0x200
 81c:	4891                	.2byte	0x4891
 81e:	0100                	.2byte	0x100
 820:	0d7c                	.2byte	0xd7c
 822:	1000                	.2byte	0x1000
 824:	0020                	.2byte	0x20
 826:	0000                	.2byte	0x0
 828:	023a                	.2byte	0x23a
 82a:	0000                	.2byte	0x0
 82c:	6902                	.2byte	0x6902
 82e:	0400                	.2byte	0x400
 830:	6a01                	.2byte	0x6a01
 832:	0000                	.2byte	0x0
 834:	0200                	.2byte	0x200
 836:	4491                	.2byte	0x4491
 838:	0100                	.2byte	0x100
 83a:	0db8                	.2byte	0xdb8
 83c:	1000                	.2byte	0x1000
 83e:	0020                	.2byte	0x20
 840:	0000                	.2byte	0x0
 842:	0254                	.2byte	0x254
 844:	0000                	.2byte	0x0
 846:	6902                	.2byte	0x6902
 848:	0800                	.2byte	0x800
 84a:	6a01                	.2byte	0x6a01
 84c:	0000                	.2byte	0x0
 84e:	0200                	.2byte	0x200
 850:	4091                	.2byte	0x4091
 852:	0100                	.2byte	0x100
 854:	0df4                	.2byte	0xdf4
 856:	1000                	.2byte	0x1000
 858:	0020                	.2byte	0x20
 85a:	0000                	.2byte	0x0
 85c:	0000026f          	jal	tp,85c <_fstack+0x25c>
 860:	6902                	.2byte	0x6902
 862:	0c00                	.2byte	0xc00
 864:	6a01                	.2byte	0x6a01
 866:	0000                	.2byte	0x0
 868:	0300                	.2byte	0x300
 86a:	bc91                	.2byte	0xbc91
 86c:	007f                	.2byte	0x7f
 86e:	3001                	.2byte	0x3001
 870:	000e                	.2byte	0xe
 872:	2010                	.2byte	0x2010
 874:	0000                	.2byte	0x0
 876:	8a00                	.2byte	0x8a00
 878:	0002                	.2byte	0x2
 87a:	0200                	.2byte	0x200
 87c:	0069                	.2byte	0x69
 87e:	0110                	.2byte	0x110
 880:	006a                	.2byte	0x6a
 882:	0000                	.2byte	0x0
 884:	7fb89103          	lh	sp,2043(a7)
 888:	0100                	.2byte	0x100
 88a:	0e6c                	.2byte	0xe6c
 88c:	1000                	.2byte	0x1000
 88e:	0020                	.2byte	0x20
 890:	0000                	.2byte	0x0
 892:	02a5                	.2byte	0x2a5
 894:	0000                	.2byte	0x0
 896:	6902                	.2byte	0x6902
 898:	1400                	.2byte	0x1400
 89a:	6a01                	.2byte	0x6a01
 89c:	0000                	.2byte	0x0
 89e:	0300                	.2byte	0x300
 8a0:	b491                	.2byte	0xb491
 8a2:	007f                	.2byte	0x7f
 8a4:	a801                	.2byte	0xa801
 8a6:	000e                	.2byte	0xe
 8a8:	2010                	.2byte	0x2010
 8aa:	0000                	.2byte	0x0
 8ac:	c000                	.2byte	0xc000
 8ae:	0002                	.2byte	0x2
 8b0:	0200                	.2byte	0x200
 8b2:	0069                	.2byte	0x69
 8b4:	0118                	.2byte	0x118
 8b6:	006a                	.2byte	0x6a
 8b8:	0000                	.2byte	0x0
 8ba:	7fb09103          	lh	sp,2043(ra)
 8be:	0100                	.2byte	0x100
 8c0:	0ee4                	.2byte	0xee4
 8c2:	1000                	.2byte	0x1000
 8c4:	0020                	.2byte	0x20
 8c6:	0000                	.2byte	0x0
 8c8:	000002db          	.4byte	0x2db
 8cc:	6902                	.2byte	0x6902
 8ce:	1c00                	.2byte	0x1c00
 8d0:	6a01                	.2byte	0x6a01
 8d2:	0000                	.2byte	0x0
 8d4:	0300                	.2byte	0x300
 8d6:	ac91                	.2byte	0xac91
 8d8:	007f                	.2byte	0x7f
 8da:	2001                	.2byte	0x2001
 8dc:	2010000f          	.4byte	0x2010000f
 8e0:	0000                	.2byte	0x0
 8e2:	f600                	.2byte	0xf600
 8e4:	0002                	.2byte	0x2
 8e6:	0200                	.2byte	0x200
 8e8:	0069                	.2byte	0x69
 8ea:	0120                	.2byte	0x120
 8ec:	006a                	.2byte	0x6a
 8ee:	0000                	.2byte	0x0
 8f0:	7fa89103          	lh	sp,2042(a7)
 8f4:	0100                	.2byte	0x100
 8f6:	0f5c                	.2byte	0xf5c
 8f8:	1000                	.2byte	0x1000
 8fa:	0020                	.2byte	0x20
 8fc:	0000                	.2byte	0x0
 8fe:	0311                	.2byte	0x311
 900:	0000                	.2byte	0x0
 902:	6902                	.2byte	0x6902
 904:	2400                	.2byte	0x2400
 906:	6a01                	.2byte	0x6a01
 908:	0000                	.2byte	0x0
 90a:	0300                	.2byte	0x300
 90c:	a491                	.2byte	0xa491
 90e:	007f                	.2byte	0x7f
 910:	9801                	.2byte	0x9801
 912:	2010000f          	.4byte	0x2010000f
 916:	0000                	.2byte	0x0
 918:	2c00                	.2byte	0x2c00
 91a:	02000003          	lb	zero,32(zero) # 20 <taps+0x20>
 91e:	0069                	.2byte	0x69
 920:	0128                	.2byte	0x128
 922:	006a                	.2byte	0x6a
 924:	0000                	.2byte	0x0
 926:	7fa09103          	lh	sp,2042(ra)
 92a:	0100                	.2byte	0x100
 92c:	0fd0                	.2byte	0xfd0
 92e:	1000                	.2byte	0x1000
 930:	0020                	.2byte	0x20
 932:	0000                	.2byte	0x0
 934:	00000347          	.4byte	0x347
 938:	6902                	.2byte	0x6902
 93a:	2b00                	.2byte	0x2b00
 93c:	6a01                	.2byte	0x6a01
 93e:	0000                	.2byte	0x0
 940:	0300                	.2byte	0x300
 942:	9c91                	.2byte	0x9c91
 944:	007f                	.2byte	0x7f
 946:	0001                	.2byte	0x1
 948:	0010                	.2byte	0x10
 94a:	2010                	.2byte	0x2010
 94c:	0000                	.2byte	0x0
 94e:	6200                	.2byte	0x6200
 950:	02000003          	lb	zero,32(zero) # 20 <taps+0x20>
 954:	0069                	.2byte	0x69
 956:	006a012f          	.4byte	0x6a012f
 95a:	0000                	.2byte	0x0
 95c:	7f989103          	lh	sp,2041(a7)
 960:	1300                	.2byte	0x1300
 962:	10f4                	.2byte	0x10f4
 964:	1000                	.2byte	0x1000
 966:	0020                	.2byte	0x20
 968:	0000                	.2byte	0x0
 96a:	6902                	.2byte	0x6902
 96c:	4b00                	.2byte	0x4b00
 96e:	6a01                	.2byte	0x6a01
 970:	0000                	.2byte	0x0
 972:	0300                	.2byte	0x300
 974:	9491                	.2byte	0x9491
 976:	007f                	.2byte	0x7f
 978:	0a00                	.2byte	0xa00
 97a:	0000026f          	jal	tp,97a <_fstack+0x37a>
 97e:	1d05                	.2byte	0x1d05
 980:	0460                	.2byte	0x460
 982:	1000                	.2byte	0x1000
 984:	0028                	.2byte	0x28
 986:	0000                	.2byte	0x0
 988:	9c01                	.2byte	0x9c01
 98a:	039f 0000 3a14      	.byte	0x9f, 0x03, 0x00, 0x00, 0x14, 0x3a
 990:	0001                	.2byte	0x1
 992:	0500                	.2byte	0x500
 994:	2d1d                	.2byte	0x2d1d
 996:	0071                	.2byte	0x71
 998:	0000                	.2byte	0x0
 99a:	9102                	.2byte	0x9102
 99c:	006c                	.2byte	0x6c
 99e:	3315                	.2byte	0x3315
 9a0:	0001                	.2byte	0x1
 9a2:	0500                	.2byte	0x500
 9a4:	1c16                	.2byte	0x1c16
 9a6:	0071                	.2byte	0x71
 9a8:	0000                	.2byte	0x0
 9aa:	0438                	.2byte	0x438
 9ac:	1000                	.2byte	0x1000
 9ae:	0028                	.2byte	0x28
 9b0:	0000                	.2byte	0x0
 9b2:	9c01                	.2byte	0x9c01
 9b4:	03c9                	.2byte	0x3c9
 9b6:	0000                	.2byte	0x0
 9b8:	3a05                	.2byte	0x3a05
 9ba:	0001                	.2byte	0x1
 9bc:	0500                	.2byte	0x500
 9be:	0f18                	.2byte	0xf18
 9c0:	0071                	.2byte	0x71
 9c2:	0000                	.2byte	0x0
 9c4:	9102                	.2byte	0x9102
 9c6:	006c                	.2byte	0x6c
 9c8:	00029d0b          	.4byte	0x29d0b
 9cc:	1a00                	.2byte	0x1a00
 9ce:	03e4                	.2byte	0x3e4
 9d0:	1000                	.2byte	0x1000
 9d2:	0054                	.2byte	0x54
 9d4:	0000                	.2byte	0x0
 9d6:	9c01                	.2byte	0x9c01
 9d8:	000003eb          	.4byte	0x3eb
 9dc:	7006                	.2byte	0x7006
 9de:	0400                	.2byte	0x400
 9e0:	181a                	.2byte	0x181a
 9e2:	000003eb          	.4byte	0x3eb
 9e6:	9102                	.2byte	0x9102
 9e8:	006c                	.2byte	0x6c
 9ea:	f709                	.2byte	0xf709
 9ec:	03000003          	lb	zero,48(zero) # 30 <inputsignal+0x4>
 9f0:	0801                	.2byte	0x801
 9f2:	00c4                	.2byte	0xc4
 9f4:	0000                	.2byte	0x0
 9f6:	f016                	.2byte	0xf016
 9f8:	0b000003          	lb	zero,176(zero) # b0 <B+0x18>
 9fc:	0262                	.2byte	0x262
 9fe:	0000                	.2byte	0x0
 a00:	7c12                	.2byte	0x7c12
 a02:	68100003          	lb	zero,1665(zero) # 681 <_fstack+0x81>
 a06:	0000                	.2byte	0x0
 a08:	0100                	.2byte	0x100
 a0a:	1e9c                	.2byte	0x1e9c
 a0c:	0004                	.2byte	0x4
 a0e:	0600                	.2byte	0x600
 a10:	12040063          	beqz	s0,b30 <_fstack+0x530>
 a14:	0003f013          	andi	zero,t2,0
 a18:	0200                	.2byte	0x200
 a1a:	6f91                	.2byte	0x6f91
 a1c:	1700                	.2byte	0x1700
 a1e:	0000027b          	.4byte	0x27b
 a22:	14032503          	lw	a0,320(t1)
 a26:	0344                	.2byte	0x344
 a28:	1000                	.2byte	0x1000
 a2a:	0038                	.2byte	0x38
 a2c:	0000                	.2byte	0x0
 a2e:	9c01                	.2byte	0x9c01
 a30:	0444                	.2byte	0x444
 a32:	0000                	.2byte	0x0
 a34:	7618                	.2byte	0x7618
 a36:	0300                	.2byte	0x300
 a38:	0325                	.2byte	0x325
 a3a:	5038                	.2byte	0x5038
 a3c:	0000                	.2byte	0x0
 a3e:	0200                	.2byte	0x200
 a40:	6c91                	.2byte	0x6c91
 a42:	0a00                	.2byte	0xa00
 a44:	0098                	.2byte	0x98
 a46:	0000                	.2byte	0x0
 a48:	2002                	.2byte	0x2002
 a4a:	0314                	.2byte	0x314
 a4c:	1000                	.2byte	0x1000
 a4e:	0030                	.2byte	0x30
 a50:	0000                	.2byte	0x0
 a52:	9c01                	.2byte	0x9c01
 a54:	0474                	.2byte	0x474
 a56:	0000                	.2byte	0x0
 a58:	7606                	.2byte	0x7606
 a5a:	0200                	.2byte	0x200
 a5c:	3320                	.2byte	0x3320
 a5e:	005c                	.2byte	0x5c
 a60:	0000                	.2byte	0x0
 a62:	9102                	.2byte	0x9102
 a64:	066c                	.2byte	0x66c
 a66:	0061                	.2byte	0x61
 a68:	2002                	.2byte	0x2002
 a6a:	5c44                	.2byte	0x5c44
 a6c:	0000                	.2byte	0x0
 a6e:	0200                	.2byte	0x200
 a70:	6891                	.2byte	0x6891
 a72:	0c00                	.2byte	0xc00
 a74:	00000087          	.4byte	0x87
 a78:	f81c                	.2byte	0xf81c
 a7a:	0002                	.2byte	0x2
 a7c:	1c10                	.2byte	0x1c10
 a7e:	0000                	.2byte	0x0
 a80:	0100                	.2byte	0x100
 a82:	0c9c                	.2byte	0xc9c
 a84:	0156                	.2byte	0x156
 a86:	0000                	.2byte	0x0
 a88:	dc0e                	.2byte	0xdc0e
 a8a:	0002                	.2byte	0x2
 a8c:	1c10                	.2byte	0x1c10
 a8e:	0000                	.2byte	0x0
 a90:	0100                	.2byte	0x100
 a92:	009c                	.2byte	0x9c
 a94:	0000002b          	.4byte	0x2b
 a98:	0005                	.2byte	0x5
 a9a:	0401                	.2byte	0x401
 a9c:	04e6                	.2byte	0x4e6
 a9e:	0000                	.2byte	0x0
 aa0:	b601                	.2byte	0xb601
 aa2:	0019                	.2byte	0x19
 aa4:	0000                	.2byte	0x0
 aa6:	0000                	.2byte	0x0
 aa8:	2438                	.2byte	0x2438
 aaa:	000002a3          	sb	zero,5(zero) # 5 <taps+0x5>
 aae:	02e4                	.2byte	0x2e4
 ab0:	0000                	.2byte	0x0
 ab2:	0054                	.2byte	0x54
 ab4:	0000                	.2byte	0x0
 ab6:	8001                	.2byte	0x8001
 ab8:	3702                	.2byte	0x3702
 aba:	00000003          	lb	zero,0(zero) # 0 <taps>
 abe:	0000                	.2byte	0x0
 ac0:	2438                	.2byte	0x2438
	...

Disassembly of section .debug_abbrev:

00000000 <.debug_abbrev>:
   0:	1101                	.2byte	0x1101
   2:	1000                	.2byte	0x1000
   4:	12011117          	auipc	sp,0x12011
   8:	1b0e030f          	.4byte	0x1b0e030f
   c:	250e                	.2byte	0x250e
   e:	130e                	.2byte	0x130e
  10:	0005                	.2byte	0x5
  12:	0000                	.2byte	0x0
  14:	2401                	.2byte	0x2401
  16:	0b00                	.2byte	0xb00
  18:	030b3e0b          	.4byte	0x30b3e0b
  1c:	000e                	.2byte	0xe
  1e:	0200                	.2byte	0x200
  20:	0034                	.2byte	0x34
  22:	0b3a0e03          	lb	t3,179(s4)
  26:	0b390b3b          	.4byte	0xb390b3b
  2a:	1349                	.2byte	0x1349
  2c:	1802                	.2byte	0x1802
  2e:	0000                	.2byte	0x0
  30:	3f012e03          	lw	t3,1008(sp) # 120113f4 <_esram_rom+0x200ffac>
  34:	0319                	.2byte	0x319
  36:	3a0e                	.2byte	0x3a0e
  38:	0521                	.2byte	0x521
  3a:	21390b3b          	.4byte	0x21390b3b
  3e:	490c                	.2byte	0x490c
  40:	01193c13          	sltiu	s8,s2,17
  44:	04000013          	li	zero,64
  48:	0018                	.2byte	0x18
  4a:	0000                	.2byte	0x0
  4c:	2e05                	.2byte	0x2e05
  4e:	0301                	.2byte	0x301
  50:	3a0e                	.2byte	0x3a0e
  52:	0421                	.2byte	0x421
  54:	21390b3b          	.4byte	0x21390b3b
  58:	271c                	.2byte	0x271c
  5a:	4919                	.2byte	0x4919
  5c:	12011113          	.4byte	0x12011113
  60:	4006                	.2byte	0x4006
  62:	7a18                	.2byte	0x7a18
  64:	0119                	.2byte	0x119
  66:	06000013          	li	zero,96
  6a:	0005                	.2byte	0x5
  6c:	213a0803          	lb	a6,531(s4)
  70:	3b02                	.2byte	0x3b02
  72:	2021                	.2byte	0x2021
  74:	0b39                	.2byte	0xb39
  76:	1349                	.2byte	0x1349
  78:	1802                	.2byte	0x1802
  7a:	0000                	.2byte	0x0
  7c:	03002e07          	.4byte	0x3002e07
  80:	3a0e                	.2byte	0x3a0e
  82:	0121                	.2byte	0x121
  84:	21390b3b          	.4byte	0x21390b3b
  88:	2725                	.2byte	0x2725
  8a:	1119                	.2byte	0x1119
  8c:	1201                	.2byte	0x1201
  8e:	4006                	.2byte	0x4006
  90:	7a18                	.2byte	0x7a18
  92:	0019                	.2byte	0x19
  94:	0800                	.2byte	0x800
  96:	0111                	.2byte	0x111
  98:	0e25                	.2byte	0xe25
  9a:	1f030b13          	addi	s6,t1,496
  9e:	01111f1b          	.4byte	0x1111f1b
  a2:	0612                	.2byte	0x612
  a4:	1710                	.2byte	0x1710
  a6:	0000                	.2byte	0x0
  a8:	1609                	.2byte	0x1609
  aa:	0300                	.2byte	0x300
  ac:	3a0e                	.2byte	0x3a0e
  ae:	390b3b0b          	.4byte	0x390b3b0b
  b2:	0013490b          	.4byte	0x13490b
  b6:	0a00                	.2byte	0xa00
  b8:	0024                	.2byte	0x24
  ba:	0b3e0b0b          	.4byte	0xb3e0b0b
  be:	00000803          	lb	a6,0(zero) # 0 <taps>
  c2:	0300340b          	.4byte	0x300340b
  c6:	3a0e                	.2byte	0x3a0e
  c8:	390b3b0b          	.4byte	0x390b3b0b
  cc:	3f13490b          	.4byte	0x3f13490b
  d0:	0219                	.2byte	0x219
  d2:	0018                	.2byte	0x18
  d4:	0c00                	.2byte	0xc00
  d6:	012e                	.2byte	0x12e
  d8:	0803193f 0b3b0b3a 	.8byte	0xb3b0b3a0803193f
  e0:	0b39                	.2byte	0xb39
  e2:	01111927          	.4byte	0x1111927
  e6:	0612                	.2byte	0x612
  e8:	1840                	.2byte	0x1840
  ea:	197c                	.2byte	0x197c
  ec:	1301                	.2byte	0x1301
  ee:	0000                	.2byte	0x0
  f0:	340d                	.2byte	0x340d
  f2:	0300                	.2byte	0x300
  f4:	3a08                	.2byte	0x3a08
  f6:	390b3b0b          	.4byte	0x390b3b0b
  fa:	0213490b          	.4byte	0x213490b
  fe:	0018                	.2byte	0x18
 100:	0e00                	.2byte	0xe00
 102:	012e                	.2byte	0x12e
 104:	0b3a0e03          	lb	t3,179(s4)
 108:	0b39053b          	.4byte	0xb39053b
 10c:	01111927          	.4byte	0x1111927
 110:	0612                	.2byte	0x612
 112:	1840                	.2byte	0x1840
 114:	197c                	.2byte	0x197c
 116:	1301                	.2byte	0x1301
 118:	0000                	.2byte	0x0
 11a:	0300050f          	.4byte	0x300050f
 11e:	3a08                	.2byte	0x3a08
 120:	39053b0b          	.4byte	0x39053b0b
 124:	0213490b          	.4byte	0x213490b
 128:	0018                	.2byte	0x18
 12a:	1000                	.2byte	0x1000
 12c:	012e                	.2byte	0x12e
 12e:	0b3a0e03          	lb	t3,179(s4)
 132:	0b390b3b          	.4byte	0xb390b3b
 136:	01111927          	.4byte	0x1111927
 13a:	0612                	.2byte	0x612
 13c:	1840                	.2byte	0x1840
 13e:	197a                	.2byte	0x197a
 140:	1301                	.2byte	0x1301
 142:	0000                	.2byte	0x0
 144:	0100                	.2byte	0x100
 146:	0034                	.2byte	0x34
 148:	213a0803          	lb	a6,531(s4)
 14c:	3b02                	.2byte	0x3b02
 14e:	490b390b          	.4byte	0x490b390b
 152:	00180213          	addi	tp,a6,1
 156:	0200                	.2byte	0x200
 158:	0024                	.2byte	0x24
 15a:	0b3e0b0b          	.4byte	0xb3e0b0b
 15e:	00000e03          	lb	t3,0(zero) # 0 <taps>
 162:	03000503          	lb	a0,48(zero) # 30 <inputsignal+0x4>
 166:	3a08                	.2byte	0x3a08
 168:	0221                	.2byte	0x221
 16a:	0b390b3b          	.4byte	0xb390b3b
 16e:	1349                	.2byte	0x1349
 170:	1802                	.2byte	0x1802
 172:	0000                	.2byte	0x0
 174:	3404                	.2byte	0x3404
 176:	0300                	.2byte	0x300
 178:	3a0e                	.2byte	0x3a0e
 17a:	0321                	.2byte	0x321
 17c:	0b390b3b          	.4byte	0xb390b3b
 180:	1349                	.2byte	0x1349
 182:	1802193f 0b050000 	.8byte	0xb0500001802193f
 18a:	1101                	.2byte	0x1101
 18c:	1201                	.2byte	0x1201
 18e:	0006                	.2byte	0x6
 190:	0600                	.2byte	0x600
 192:	0034                	.2byte	0x34
 194:	213a0e03          	lb	t3,531(s4)
 198:	3b02                	.2byte	0x3b02
 19a:	490b390b          	.4byte	0x490b390b
 19e:	00180213          	addi	tp,a6,1
 1a2:	0700                	.2byte	0x700
 1a4:	0101                	.2byte	0x101
 1a6:	1349                	.2byte	0x1349
 1a8:	1301                	.2byte	0x1301
 1aa:	0000                	.2byte	0x0
 1ac:	2108                	.2byte	0x2108
 1ae:	4900                	.2byte	0x4900
 1b0:	000b2f13          	slti	t5,s6,0
 1b4:	0900                	.2byte	0x900
 1b6:	012e                	.2byte	0x12e
 1b8:	0e03193f 3b02213a 	.8byte	0x3b02213a0e03193f
 1c0:	270b390b          	.4byte	0x270b390b
 1c4:	1119                	.2byte	0x1119
 1c6:	1201                	.2byte	0x1201
 1c8:	4006                	.2byte	0x4006
 1ca:	7c18                	.2byte	0x7c18
 1cc:	0119                	.2byte	0x119
 1ce:	0a000013          	li	zero,160
 1d2:	0034                	.2byte	0x34
 1d4:	213a0803          	lb	a6,531(s4)
 1d8:	390b3b03          	.4byte	0x390b3b03
 1dc:	0621                	.2byte	0x621
 1de:	1349                	.2byte	0x1349
 1e0:	1802193f 0f0b0000 	.8byte	0xf0b00001802193f
 1e8:	0b00                	.2byte	0xb00
 1ea:	0421                	.2byte	0x421
 1ec:	1349                	.2byte	0x1349
 1ee:	0000                	.2byte	0x0
 1f0:	2e0c                	.2byte	0x2e0c
 1f2:	3f01                	.2byte	0x3f01
 1f4:	0319                	.2byte	0x319
 1f6:	3a0e                	.2byte	0x3a0e
 1f8:	0221                	.2byte	0x221
 1fa:	0b390b3b          	.4byte	0xb390b3b
 1fe:	1349                	.2byte	0x1349
 200:	0111                	.2byte	0x111
 202:	0612                	.2byte	0x612
 204:	1840                	.2byte	0x1840
 206:	197a                	.2byte	0x197a
 208:	1301                	.2byte	0x1301
 20a:	0000                	.2byte	0x0
 20c:	2e0d                	.2byte	0x2e0d
 20e:	0300                	.2byte	0x300
 210:	3a0e                	.2byte	0x3a0e
 212:	0121                	.2byte	0x121
 214:	21390b3b          	.4byte	0x21390b3b
 218:	2725                	.2byte	0x2725
 21a:	1119                	.2byte	0x1119
 21c:	1201                	.2byte	0x1201
 21e:	4006                	.2byte	0x4006
 220:	7a18                	.2byte	0x7a18
 222:	0019                	.2byte	0x19
 224:	0e00                	.2byte	0xe00
 226:	0111                	.2byte	0x111
 228:	0e25                	.2byte	0xe25
 22a:	1f030b13          	addi	s6,t1,496
 22e:	17551f1b          	.4byte	0x17551f1b
 232:	0111                	.2byte	0x111
 234:	1710                	.2byte	0x1710
 236:	0000                	.2byte	0x0
 238:	0300160f          	.4byte	0x300160f
 23c:	3a0e                	.2byte	0x3a0e
 23e:	390b3b0b          	.4byte	0x390b3b0b
 242:	0013490b          	.4byte	0x13490b
 246:	1000                	.2byte	0x1000
 248:	0024                	.2byte	0x24
 24a:	0b3e0b0b          	.4byte	0xb3e0b0b
 24e:	00000803          	lb	a6,0(zero) # 0 <taps>
 252:	2e11                	.2byte	0x2e11
 254:	3f00                	.2byte	0x3f00
 256:	0319                	.2byte	0x319
 258:	3a0e                	.2byte	0x3a0e
 25a:	390b3b0b          	.4byte	0x390b3b0b
 25e:	1113490b          	.4byte	0x1113490b
 262:	1201                	.2byte	0x1201
 264:	4006                	.2byte	0x4006
 266:	7c18                	.2byte	0x7c18
 268:	0019                	.2byte	0x19
 26a:	1200                	.2byte	0x1200
 26c:	012e                	.2byte	0x12e
 26e:	0e03193f 0b3b0b3a 	.8byte	0xb3b0b3a0e03193f
 276:	0b39                	.2byte	0xb39
 278:	13491927          	.4byte	0x13491927
 27c:	0111                	.2byte	0x111
 27e:	0612                	.2byte	0x612
 280:	1840                	.2byte	0x1840
 282:	197a                	.2byte	0x197a
 284:	1301                	.2byte	0x1301
 286:	0000                	.2byte	0x0
 288:	3f012e13          	slti	t3,sp,1008
 28c:	0319                	.2byte	0x319
 28e:	3a0e                	.2byte	0x3a0e
 290:	390b3b0b          	.4byte	0x390b3b0b
 294:	1113490b          	.4byte	0x1113490b
 298:	1201                	.2byte	0x1201
 29a:	4006                	.2byte	0x4006
 29c:	7c18                	.2byte	0x7c18
 29e:	0119                	.2byte	0x119
 2a0:	14000013          	li	zero,320
 2a4:	0034                	.2byte	0x34
 2a6:	0b3a0803          	lb	a6,179(s4)
 2aa:	0b390b3b          	.4byte	0xb390b3b
 2ae:	1349                	.2byte	0x1349
 2b0:	0000                	.2byte	0x0
 2b2:	2e15                	.2byte	0x2e15
 2b4:	3f01                	.2byte	0x3f01
 2b6:	0319                	.2byte	0x319
 2b8:	3a08                	.2byte	0x3a08
 2ba:	390b3b0b          	.4byte	0x390b3b0b
 2be:	1113490b          	.4byte	0x1113490b
 2c2:	1201                	.2byte	0x1201
 2c4:	4006                	.2byte	0x4006
 2c6:	7c18                	.2byte	0x7c18
 2c8:	0119                	.2byte	0x119
 2ca:	16000013          	li	zero,352
 2ce:	012e                	.2byte	0x12e
 2d0:	0e03193f 0b3b0b3a 	.8byte	0xb3b0b3a0e03193f
 2d8:	0b39                	.2byte	0xb39
 2da:	13491927          	.4byte	0x13491927
 2de:	0111                	.2byte	0x111
 2e0:	0612                	.2byte	0x612
 2e2:	1840                	.2byte	0x1840
 2e4:	197c                	.2byte	0x197c
 2e6:	1301                	.2byte	0x1301
 2e8:	0000                	.2byte	0x0
 2ea:	03000517          	auipc	a0,0x3000
 2ee:	3a0e                	.2byte	0x3a0e
 2f0:	390b3b0b          	.4byte	0x390b3b0b
 2f4:	0213490b          	.4byte	0x213490b
 2f8:	0018                	.2byte	0x18
 2fa:	1800                	.2byte	0x1800
 2fc:	0111010b          	.4byte	0x111010b
 300:	0612                	.2byte	0x612
 302:	1301                	.2byte	0x1301
 304:	0000                	.2byte	0x0
 306:	2e19                	.2byte	0x2e19
 308:	3f01                	.2byte	0x3f01
 30a:	0319                	.2byte	0x319
 30c:	3a0e                	.2byte	0x3a0e
 30e:	390b3b0b          	.4byte	0x390b3b0b
 312:	1201110b          	.4byte	0x1201110b
 316:	4006                	.2byte	0x4006
 318:	7a18                	.2byte	0x7a18
 31a:	0119                	.2byte	0x119
 31c:	1a000013          	li	zero,416
 320:	0026                	.2byte	0x26
 322:	1349                	.2byte	0x1349
 324:	0000                	.2byte	0x0
 326:	3f012e1b          	.4byte	0x3f012e1b
 32a:	0319                	.2byte	0x319
 32c:	3a0e                	.2byte	0x3a0e
 32e:	390b3b0b          	.4byte	0x390b3b0b
 332:	1119270b          	.4byte	0x1119270b
 336:	1201                	.2byte	0x1201
 338:	4006                	.2byte	0x4006
 33a:	7a18                	.2byte	0x7a18
 33c:	0119                	.2byte	0x119
 33e:	00000013          	nop
 342:	0b01                	.2byte	0xb01
 344:	1101                	.2byte	0x1101
 346:	1201                	.2byte	0x1201
 348:	0106                	.2byte	0x106
 34a:	02000013          	li	zero,32
 34e:	0034                	.2byte	0x34
 350:	213a0803          	lb	a6,531(s4)
 354:	3b06                	.2byte	0x3b06
 356:	3905                	.2byte	0x3905
 358:	0a21                	.2byte	0xa21
 35a:	1349                	.2byte	0x1349
 35c:	1802                	.2byte	0x1802
 35e:	0000                	.2byte	0x0
 360:	0b002403          	lw	s0,176(zero) # b0 <B+0x18>
 364:	030b3e0b          	.4byte	0x30b3e0b
 368:	000e                	.2byte	0xe
 36a:	0400                	.2byte	0x400
 36c:	0034                	.2byte	0x34
 36e:	213a0803          	lb	a6,531(s4)
 372:	3b06                	.2byte	0x3b06
 374:	490b390b          	.4byte	0x490b390b
 378:	00180213          	addi	tp,a6,1
 37c:	0500                	.2byte	0x500
 37e:	0034                	.2byte	0x34
 380:	0b3a0e03          	lb	t3,179(s4)
 384:	0b390b3b          	.4byte	0xb390b3b
 388:	1349                	.2byte	0x1349
 38a:	1802                	.2byte	0x1802
 38c:	0000                	.2byte	0x0
 38e:	0506                	.2byte	0x506
 390:	0300                	.2byte	0x300
 392:	3a08                	.2byte	0x3a08
 394:	390b3b0b          	.4byte	0x390b3b0b
 398:	0213490b          	.4byte	0x213490b
 39c:	0018                	.2byte	0x18
 39e:	0700                	.2byte	0x700
 3a0:	0018                	.2byte	0x18
 3a2:	0000                	.2byte	0x0
 3a4:	2e08                	.2byte	0x2e08
 3a6:	3f01                	.2byte	0x3f01
 3a8:	0319                	.2byte	0x319
 3aa:	3a0e                	.2byte	0x3a0e
 3ac:	0621                	.2byte	0x621
 3ae:	21390b3b          	.4byte	0x21390b3b
 3b2:	490d                	.2byte	0x490d
 3b4:	01193c13          	sltiu	s8,s2,17
 3b8:	09000013          	li	zero,144
 3bc:	210b000f          	.4byte	0x210b000f
 3c0:	4904                	.2byte	0x4904
 3c2:	0a000013          	li	zero,160
 3c6:	012e                	.2byte	0x12e
 3c8:	0b3a0e03          	lb	t3,179(s4)
 3cc:	21390b3b          	.4byte	0x21390b3b
 3d0:	2714                	.2byte	0x2714
 3d2:	1119                	.2byte	0x1119
 3d4:	1201                	.2byte	0x1201
 3d6:	4006                	.2byte	0x4006
 3d8:	7a18                	.2byte	0x7a18
 3da:	0119                	.2byte	0x119
 3dc:	0b000013          	li	zero,176
 3e0:	012e                	.2byte	0x12e
 3e2:	0e03193f 3b04213a 	.8byte	0x3b04213a0e03193f
 3ea:	0621390b          	.4byte	0x621390b
 3ee:	01111927          	.4byte	0x1111927
 3f2:	0612                	.2byte	0x612
 3f4:	1840                	.2byte	0x1840
 3f6:	197c                	.2byte	0x197c
 3f8:	1301                	.2byte	0x1301
 3fa:	0000                	.2byte	0x0
 3fc:	2e0c                	.2byte	0x2e0c
 3fe:	0300                	.2byte	0x300
 400:	3a0e                	.2byte	0x3a0e
 402:	0121                	.2byte	0x121
 404:	21390b3b          	.4byte	0x21390b3b
 408:	2725                	.2byte	0x2725
 40a:	1119                	.2byte	0x1119
 40c:	1201                	.2byte	0x1201
 40e:	4006                	.2byte	0x4006
 410:	7a18                	.2byte	0x7a18
 412:	0019                	.2byte	0x19
 414:	0d00                	.2byte	0xd00
 416:	0111                	.2byte	0x111
 418:	0e25                	.2byte	0xe25
 41a:	1f030b13          	addi	s6,t1,496
 41e:	01111f1b          	.4byte	0x1111f1b
 422:	0612                	.2byte	0x612
 424:	1710                	.2byte	0x1710
 426:	0000                	.2byte	0x0
 428:	160e                	.2byte	0x160e
 42a:	0300                	.2byte	0x300
 42c:	3a0e                	.2byte	0x3a0e
 42e:	390b3b0b          	.4byte	0x390b3b0b
 432:	0013490b          	.4byte	0x13490b
 436:	0f00                	.2byte	0xf00
 438:	0024                	.2byte	0x24
 43a:	0b3e0b0b          	.4byte	0xb3e0b0b
 43e:	00000803          	lb	a6,0(zero) # 0 <taps>
 442:	2e10                	.2byte	0x2e10
 444:	3f01                	.2byte	0x3f01
 446:	0319                	.2byte	0x319
 448:	3a08                	.2byte	0x3a08
 44a:	390b3b0b          	.4byte	0x390b3b0b
 44e:	3c13490b          	.4byte	0x3c13490b
 452:	0119                	.2byte	0x119
 454:	11000013          	li	zero,272
 458:	012e                	.2byte	0x12e
 45a:	0e03193f 0b3b0b3a 	.8byte	0xb3b0b3a0e03193f
 462:	0b39                	.2byte	0xb39
 464:	0111                	.2byte	0x111
 466:	0612                	.2byte	0x612
 468:	1840                	.2byte	0x1840
 46a:	197c                	.2byte	0x197c
 46c:	1301                	.2byte	0x1301
 46e:	0000                	.2byte	0x0
 470:	3412                	.2byte	0x3412
 472:	0300                	.2byte	0x300
 474:	3a08                	.2byte	0x3a08
 476:	390b3b0b          	.4byte	0x390b3b0b
 47a:	0013490b          	.4byte	0x13490b
 47e:	1300                	.2byte	0x1300
 480:	0111010b          	.4byte	0x111010b
 484:	0612                	.2byte	0x612
 486:	0000                	.2byte	0x0
 488:	0514                	.2byte	0x514
 48a:	0300                	.2byte	0x300
 48c:	3a0e                	.2byte	0x3a0e
 48e:	390b3b0b          	.4byte	0x390b3b0b
 492:	0213490b          	.4byte	0x213490b
 496:	0018                	.2byte	0x18
 498:	1500                	.2byte	0x1500
 49a:	012e                	.2byte	0x12e
 49c:	0b3a0e03          	lb	t3,179(s4)
 4a0:	0b390b3b          	.4byte	0xb390b3b
 4a4:	13491927          	.4byte	0x13491927
 4a8:	0111                	.2byte	0x111
 4aa:	0612                	.2byte	0x612
 4ac:	1840                	.2byte	0x1840
 4ae:	197a                	.2byte	0x197a
 4b0:	1301                	.2byte	0x1301
 4b2:	0000                	.2byte	0x0
 4b4:	2616                	.2byte	0x2616
 4b6:	4900                	.2byte	0x4900
 4b8:	17000013          	li	zero,368
 4bc:	012e                	.2byte	0x12e
 4be:	0b3a0e03          	lb	t3,179(s4)
 4c2:	0b39053b          	.4byte	0xb39053b
 4c6:	01111927          	.4byte	0x1111927
 4ca:	0612                	.2byte	0x612
 4cc:	1840                	.2byte	0x1840
 4ce:	197c                	.2byte	0x197c
 4d0:	1301                	.2byte	0x1301
 4d2:	0000                	.2byte	0x0
 4d4:	0518                	.2byte	0x518
 4d6:	0300                	.2byte	0x300
 4d8:	3a08                	.2byte	0x3a08
 4da:	39053b0b          	.4byte	0x39053b0b
 4de:	0213490b          	.4byte	0x213490b
 4e2:	0018                	.2byte	0x18
 4e4:	0000                	.2byte	0x0
 4e6:	1101                	.2byte	0x1101
 4e8:	1001                	.2byte	0x1001
 4ea:	12011117          	auipc	sp,0x12011
 4ee:	1b0e030f          	.4byte	0x1b0e030f
 4f2:	250e                	.2byte	0x250e
 4f4:	130e                	.2byte	0x130e
 4f6:	0005                	.2byte	0x5
 4f8:	0200                	.2byte	0x200
 4fa:	002e                	.2byte	0x2e
 4fc:	193f0e03          	lb	t3,403(t5)
 500:	0111                	.2byte	0x111
 502:	0f12                	.2byte	0xf12
 504:	0000                	.2byte	0x0
	...

Disassembly of section .debug_aranges:

00000000 <.debug_aranges>:
   0:	001c                	.2byte	0x1c
   2:	0000                	.2byte	0x0
   4:	0002                	.2byte	0x2
   6:	0000                	.2byte	0x0
   8:	0000                	.2byte	0x0
   a:	0004                	.2byte	0x4
   c:	0000                	.2byte	0x0
   e:	0000                	.2byte	0x0
  10:	0000                	.2byte	0x0
  12:	1000                	.2byte	0x1000
  14:	0148                	.2byte	0x148
	...
  1e:	0000                	.2byte	0x0
  20:	001c                	.2byte	0x1c
  22:	0000                	.2byte	0x0
  24:	0002                	.2byte	0x2
  26:	0025                	.2byte	0x25
  28:	0000                	.2byte	0x0
  2a:	0004                	.2byte	0x4
  2c:	0000                	.2byte	0x0
  2e:	0000                	.2byte	0x0
  30:	0148                	.2byte	0x148
  32:	1000                	.2byte	0x1000
  34:	015c                	.2byte	0x15c
	...
  3e:	0000                	.2byte	0x0
  40:	007c                	.2byte	0x7c
  42:	0000                	.2byte	0x0
  44:	0002                	.2byte	0x2
  46:	01c8                	.2byte	0x1c8
  48:	0000                	.2byte	0x0
  4a:	0004                	.2byte	0x4
  4c:	0000                	.2byte	0x0
  4e:	0000                	.2byte	0x0
  50:	02a4                	.2byte	0x2a4
  52:	1000                	.2byte	0x1000
  54:	0038                	.2byte	0x38
  56:	0000                	.2byte	0x0
  58:	1154                	.2byte	0x1154
  5a:	1000                	.2byte	0x1000
  5c:	0048                	.2byte	0x48
  5e:	0000                	.2byte	0x0
  60:	119c                	.2byte	0x119c
  62:	1000                	.2byte	0x1000
  64:	0068                	.2byte	0x68
  66:	0000                	.2byte	0x0
  68:	1204                	.2byte	0x1204
  6a:	1000                	.2byte	0x1000
  6c:	0054                	.2byte	0x54
  6e:	0000                	.2byte	0x0
  70:	1258                	.2byte	0x1258
  72:	1000                	.2byte	0x1000
  74:	0074                	.2byte	0x74
  76:	0000                	.2byte	0x0
  78:	12cc                	.2byte	0x12cc
  7a:	1000                	.2byte	0x1000
  7c:	0074                	.2byte	0x74
  7e:	0000                	.2byte	0x0
  80:	0024                	.2byte	0x24
  82:	3800                	.2byte	0x3800
  84:	0068                	.2byte	0x68
  86:	0000                	.2byte	0x0
  88:	008c                	.2byte	0x8c
  8a:	3800                	.2byte	0x3800
  8c:	00f0                	.2byte	0xf0
  8e:	0000                	.2byte	0x0
  90:	017c                	.2byte	0x17c
  92:	3800                	.2byte	0x3800
  94:	0080                	.2byte	0x80
  96:	0000                	.2byte	0x0
  98:	01fc                	.2byte	0x1fc
  9a:	3800                	.2byte	0x3800
  9c:	0118                	.2byte	0x118
  9e:	0000                	.2byte	0x0
  a0:	0314                	.2byte	0x314
  a2:	3800                	.2byte	0x3800
  a4:	0184                	.2byte	0x184
  a6:	0000                	.2byte	0x0
  a8:	0498                	.2byte	0x498
  aa:	3800                	.2byte	0x3800
  ac:	0070                	.2byte	0x70
  ae:	0000                	.2byte	0x0
  b0:	0508                	.2byte	0x508
  b2:	3800                	.2byte	0x3800
  b4:	0034                	.2byte	0x34
	...
  be:	0000                	.2byte	0x0
  c0:	001c                	.2byte	0x1c
  c2:	0000                	.2byte	0x0
  c4:	0002                	.2byte	0x2
  c6:	05ff                	.2byte	0x5ff
  c8:	0000                	.2byte	0x0
  ca:	0004                	.2byte	0x4
  cc:	0000                	.2byte	0x0
  ce:	0000                	.2byte	0x0
  d0:	02dc                	.2byte	0x2dc
  d2:	1000                	.2byte	0x1000
  d4:	0e78                	.2byte	0xe78
	...
  de:	0000                	.2byte	0x0
  e0:	001c                	.2byte	0x1c
  e2:	0000                	.2byte	0x0
  e4:	0002                	.2byte	0x2
  e6:	0a94                	.2byte	0xa94
  e8:	0000                	.2byte	0x0
  ea:	0004                	.2byte	0x4
  ec:	0000                	.2byte	0x0
  ee:	0000                	.2byte	0x0
  f0:	0000                	.2byte	0x0
  f2:	3800                	.2byte	0x3800
  f4:	0024                	.2byte	0x24
	...

Disassembly of section .debug_str:

00000000 <.debug_str>:
   0:	2e2e                	.2byte	0x2e2e
   2:	2f2e2e2f          	.4byte	0x2f2e2e2f
   6:	6966                	.2byte	0x6966
   8:	6d72                	.2byte	0x6d72
   a:	65726177          	.4byte	0x65726177
   e:	7472632f          	.4byte	0x7472632f
  12:	5f30                	.2byte	0x5f30
  14:	6576                	.2byte	0x6576
  16:	2e78                	.2byte	0x2e78
  18:	682f0053          	.4byte	0x682f0053
  1c:	2f656d6f          	jal	s10,56312 <_fstack+0x55d12>
  20:	6275                	.2byte	0x6275
  22:	6e75                	.2byte	0x6e75
  24:	7574                	.2byte	0x7574
  26:	62616c2f          	.4byte	0x62616c2f
  2a:	2f36                	.2byte	0x2f36
  2c:	616c                	.2byte	0x616c
  2e:	2d62                	.2byte	0x2d62
  30:	736f6c77          	.4byte	0x736f6c77
  34:	625f 7361 6c65      	.byte	0x5f, 0x62, 0x61, 0x73, 0x65, 0x6c
  3a:	6e69                	.2byte	0x6e69
  3c:	2f65                	.2byte	0x2f65
  3e:	6574                	.2byte	0x6574
  40:	65627473          	csrrci	s0,0x656,4
  44:	636e                	.2byte	0x636e
  46:	2f68                	.2byte	0x2f68
  48:	626d6f63          	bltu	s10,t1,686 <_fstack+0x86>
  4c:	6e69                	.2byte	0x6e69
  4e:	7565                	.2byte	0x7565
  50:	7261                	.2byte	0x7261
  52:	0074                	.2byte	0x74
  54:	20554e47          	.4byte	0x20554e47
  58:	5341                	.2byte	0x5341
  5a:	3220                	.2byte	0x3220
  5c:	332e                	.2byte	0x332e
  5e:	0039                	.2byte	0x39
  60:	7375                	.2byte	0x7375
  62:	7265                	.2byte	0x7265
  64:	695f 7172 305f      	.byte	0x5f, 0x69, 0x72, 0x71, 0x5f, 0x30
  6a:	655f 5f76 6570      	.byte	0x5f, 0x65, 0x76, 0x5f, 0x70, 0x65
  70:	646e                	.2byte	0x646e
  72:	6e69                	.2byte	0x6e69
  74:	72775f67          	.4byte	0x72775f67
  78:	7469                	.2byte	0x7469
  7a:	0065                	.2byte	0x65
  7c:	6175                	.2byte	0x6175
  7e:	7472                	.2byte	0x7472
  80:	775f 6972 6574      	.byte	0x5f, 0x77, 0x72, 0x69, 0x74, 0x65
  86:	6600                	.2byte	0x6600
  88:	756c                	.2byte	0x756c
  8a:	635f6873          	csrrsi	a6,0x635,30
  8e:	7570                	.2byte	0x7570
  90:	645f 6163 6863      	.byte	0x5f, 0x64, 0x63, 0x61, 0x63, 0x68
  96:	0065                	.2byte	0x65
  98:	5f727363          	bgeu	tp,s7,67e <_fstack+0x7e>
  9c:	74697277          	.4byte	0x74697277
  a0:	5f65                	.2byte	0x5f65
  a2:	706d6973          	csrrsi	s2,0x706,26
  a6:	656c                	.2byte	0x656c
  a8:	7500                	.2byte	0x7500
  aa:	7261                	.2byte	0x7261
  ac:	5f74                	.2byte	0x5f74
  ae:	6572                	.2byte	0x6572
  b0:	6461                	.2byte	0x6461
  b2:	6300                	.2byte	0x6300
  b4:	746e756f          	jal	a0,e77fa <_fstack+0xe71fa>
  b8:	7265                	.2byte	0x7265
  ba:	7500                	.2byte	0x7500
  bc:	736e                	.2byte	0x736e
  be:	6769                	.2byte	0x6769
  c0:	656e                	.2byte	0x656e
  c2:	2064                	.2byte	0x2064
  c4:	72616863          	bltu	sp,t1,7f4 <_fstack+0x1f4>
  c8:	7300                	.2byte	0x7300
  ca:	6f68                	.2byte	0x6f68
  cc:	7472                	.2byte	0x7472
  ce:	7520                	.2byte	0x7520
  d0:	736e                	.2byte	0x736e
  d2:	6769                	.2byte	0x6769
  d4:	656e                	.2byte	0x656e
  d6:	2064                	.2byte	0x2064
  d8:	6e69                	.2byte	0x6e69
  da:	0074                	.2byte	0x74
  dc:	20554e47          	.4byte	0x20554e47
  e0:	20373143          	.4byte	0x20373143
  e4:	3231                	.2byte	0x3231
  e6:	312e                	.2byte	0x312e
  e8:	302e                	.2byte	0x302e
  ea:	2d20                	.2byte	0x2d20
  ec:	616d                	.2byte	0x616d
  ee:	6962                	.2byte	0x6962
  f0:	693d                	.2byte	0x693d
  f2:	706c                	.2byte	0x706c
  f4:	2d203233          	.4byte	0x2d203233
  f8:	746d                	.2byte	0x746d
  fa:	6e75                	.2byte	0x6e75
  fc:	3d65                	.2byte	0x3d65
  fe:	6f72                	.2byte	0x6f72
 100:	74656b63          	bltu	a0,t1,856 <_fstack+0x256>
 104:	2d20                	.2byte	0x2d20
 106:	696d                	.2byte	0x696d
 108:	732d6173          	csrrsi	sp,mhpmevent18h,26
 10c:	6570                	.2byte	0x6570
 10e:	2e323d63          	.4byte	0x2e323d63
 112:	2032                	.2byte	0x2032
 114:	6d2d                	.2byte	0x6d2d
 116:	7261                	.2byte	0x7261
 118:	723d6863          	bltu	s10,gp,848 <_fstack+0x248>
 11c:	3376                	.2byte	0x3376
 11e:	6932                	.2byte	0x6932
 120:	2d20                	.2byte	0x2d20
 122:	662d2067          	.4byte	0x662d2067
 126:	7266                	.2byte	0x7266
 128:	6565                	.2byte	0x6565
 12a:	6e617473          	csrrci	s0,0x6e6,2
 12e:	6964                	.2byte	0x6964
 130:	676e                	.2byte	0x676e
 132:	6900                	.2byte	0x6900
 134:	7172                	.2byte	0x7172
 136:	675f 7465 616d      	.byte	0x5f, 0x67, 0x65, 0x74, 0x6d, 0x61
 13c:	6c006b73          	csrrsi	s6,0x6c0,0
 140:	20676e6f          	jal	t3,76346 <_fstack+0x75d46>
 144:	6f6c                	.2byte	0x6f6c
 146:	676e                	.2byte	0x676e
 148:	7520                	.2byte	0x7520
 14a:	736e                	.2byte	0x736e
 14c:	6769                	.2byte	0x6769
 14e:	656e                	.2byte	0x656e
 150:	2064                	.2byte	0x2064
 152:	6e69                	.2byte	0x6e69
 154:	0074                	.2byte	0x74
 156:	6c66                	.2byte	0x6c66
 158:	7375                	.2byte	0x7375
 15a:	5f68                	.2byte	0x5f68
 15c:	5f757063          	bgeu	a0,s7,73c <_fstack+0x13c>
 160:	6369                	.2byte	0x6369
 162:	6361                	.2byte	0x6361
 164:	6568                	.2byte	0x6568
 166:	6c00                	.2byte	0x6c00
 168:	20676e6f          	jal	t3,7636e <_fstack+0x75d6e>
 16c:	6f6c                	.2byte	0x6f6c
 16e:	676e                	.2byte	0x676e
 170:	6920                	.2byte	0x6920
 172:	746e                	.2byte	0x746e
 174:	6900                	.2byte	0x6900
 176:	7172                	.2byte	0x7172
 178:	68730073          	.4byte	0x68730073
 17c:	2074726f          	jal	tp,47b82 <_fstack+0x47582>
 180:	6e69                	.2byte	0x6e69
 182:	0074                	.2byte	0x74
 184:	6975                	.2byte	0x6975
 186:	746e                	.2byte	0x746e
 188:	745f3233          	.4byte	0x745f3233
 18c:	6900                	.2byte	0x6900
 18e:	7172                	.2byte	0x7172
 190:	705f 6e65 6964      	.byte	0x5f, 0x70, 0x65, 0x6e, 0x64, 0x69
 196:	676e                	.2byte	0x676e
 198:	6900                	.2byte	0x6900
 19a:	706e                	.2byte	0x706e
 19c:	7475                	.2byte	0x7475
 19e:	6e676973          	csrrsi	s2,0x6e6,14
 1a2:	6c61                	.2byte	0x6c61
 1a4:	6900                	.2byte	0x6900
 1a6:	696e                	.2byte	0x696e
 1a8:	6674                	.2byte	0x6674
 1aa:	7269                	.2byte	0x7269
 1ac:	6300                	.2byte	0x6300
 1ae:	746e756f          	jal	a0,e78f4 <_fstack+0xe72f4>
 1b2:	6d00                	.2byte	0x6d00
 1b4:	7461                	.2byte	0x7461
 1b6:	756d                	.2byte	0x756d
 1b8:	006c                	.2byte	0x6c
 1ba:	7371                	.2byte	0x7371
 1bc:	0074726f          	jal	tp,479c2 <_fstack+0x473c2>
 1c0:	6574                	.2byte	0x6574
 1c2:	706d                	.2byte	0x706d
 1c4:	6f00                	.2byte	0x6f00
 1c6:	7475                	.2byte	0x7475
 1c8:	7570                	.2byte	0x7570
 1ca:	7374                	.2byte	0x7374
 1cc:	6d61                	.2byte	0x6d61
 1ce:	6c70                	.2byte	0x6c70
 1d0:	0065                	.2byte	0x65
 1d2:	6170                	.2byte	0x6170
 1d4:	7472                	.2byte	0x7472
 1d6:	7469                	.2byte	0x7469
 1d8:	6f69                	.2byte	0x6f69
 1da:	006e                	.2byte	0x6e
 1dc:	6175                	.2byte	0x6175
 1de:	7472                	.2byte	0x7472
 1e0:	725f 6165 5f64      	.byte	0x5f, 0x72, 0x65, 0x61, 0x64, 0x5f
 1e6:	72616863          	bltu	sp,t1,916 <_fstack+0x316>
 1ea:	7400                	.2byte	0x7400
 1ec:	7061                	.2byte	0x7061
 1ee:	65720073          	.4byte	0x65720073
 1f2:	746c7573          	csrrci	a0,0x746,24
 1f6:	6900                	.2byte	0x6900
 1f8:	706e                	.2byte	0x706e
 1fa:	7475                	.2byte	0x7475
 1fc:	7562                	.2byte	0x7562
 1fe:	6666                	.2byte	0x6666
 200:	7265                	.2byte	0x7265
 202:	7500                	.2byte	0x7500
 204:	7261                	.2byte	0x7261
 206:	5f74                	.2byte	0x5f74
 208:	74697277          	.4byte	0x74697277
 20c:	5f65                	.2byte	0x5f65
 20e:	72616863          	bltu	sp,t1,93e <_fstack+0x33e>
 212:	4100                	.2byte	0x4100
 214:	715f 0073 756f      	.byte	0x5f, 0x71, 0x73, 0x00, 0x6f, 0x75
 21a:	7074                	.2byte	0x7074
 21c:	7475                	.2byte	0x7475
 21e:	6e676973          	csrrsi	s2,0x6e6,14
 222:	6c61                	.2byte	0x6c61
 224:	7500                	.2byte	0x7500
 226:	7261                	.2byte	0x7261
 228:	5f74                	.2byte	0x5f74
 22a:	74697277          	.4byte	0x74697277
 22e:	5f65                	.2byte	0x5f65
 230:	69727473          	csrrci	s0,0x697,4
 234:	676e                	.2byte	0x676e
 236:	6600                	.2byte	0x6600
 238:	7269                	.2byte	0x7269
 23a:	6966                	.2byte	0x6966
 23c:	746c                	.2byte	0x746c
 23e:	7265                	.2byte	0x7265
 240:	7000                	.2byte	0x7000
 242:	7669                	.2byte	0x7669
 244:	6900746f          	jal	s0,78d4 <_fstack+0x72d4>
 248:	706e                	.2byte	0x706e
 24a:	7475                	.2byte	0x7475
 24c:	706d6173          	csrrsi	sp,0x706,26
 250:	656c                	.2byte	0x656c
 252:	7400                	.2byte	0x7400
 254:	706d                	.2byte	0x706d
 256:	665f 7269 7400      	.byte	0x5f, 0x66, 0x69, 0x72, 0x00, 0x74
 25c:	706d                	.2byte	0x706d
 25e:	4d5f 004d 7570      	.byte	0x5f, 0x4d, 0x4d, 0x00, 0x70, 0x75
 264:	6374                	.2byte	0x6374
 266:	6168                	.2byte	0x6168
 268:	0072                	.2byte	0x72
 26a:	616d                	.2byte	0x616d
 26c:	6e69                	.2byte	0x6e69
 26e:	6900                	.2byte	0x6900
 270:	7172                	.2byte	0x7172
 272:	735f 7465 616d      	.byte	0x5f, 0x73, 0x65, 0x74, 0x6d, 0x61
 278:	75006b73          	csrrsi	s6,0x750,0
 27c:	5f726573          	csrrsi	a0,0x5f7,4
 280:	7269                	.2byte	0x7269
 282:	5f71                	.2byte	0x5f71
 284:	5f30                	.2byte	0x5f30
 286:	7665                	.2byte	0x7665
 288:	655f 616e 6c62      	.byte	0x5f, 0x65, 0x6e, 0x61, 0x62, 0x6c
 28e:	5f65                	.2byte	0x5f65
 290:	74697277          	.4byte	0x74697277
 294:	0065                	.2byte	0x65
 296:	6d74                	.2byte	0x6d74
 298:	5f70                	.2byte	0x5f70
 29a:	7371                	.2byte	0x7371
 29c:	7000                	.2byte	0x7000
 29e:	6972                	.2byte	0x6972
 2a0:	746e                	.2byte	0x746e
 2a2:	2f00                	.2byte	0x2f00
 2a4:	6d74                	.2byte	0x6d74
 2a6:	2f70                	.2byte	0x2f70
 2a8:	7672                	.2byte	0x7672
 2aa:	675f 6363 722f      	.byte	0x5f, 0x67, 0x63, 0x63, 0x2f, 0x72
 2b0:	7369                	.2byte	0x7369
 2b2:	672d7663          	bgeu	s10,s2,91e <_fstack+0x31e>
 2b6:	756e                	.2byte	0x756e
 2b8:	742d                	.2byte	0x742d
 2ba:	636c6f6f          	jal	t5,c68f0 <_fstack+0xc62f0>
 2be:	6168                	.2byte	0x6168
 2c0:	6e69                	.2byte	0x6e69
 2c2:	6363672f          	.4byte	0x6363672f
 2c6:	62696c2f          	.4byte	0x62696c2f
 2ca:	2f636367          	.4byte	0x2f636367
 2ce:	666e6f63          	bltu	t3,t1,94c <_fstack+0x34c>
 2d2:	6769                	.2byte	0x6769
 2d4:	7369722f          	.4byte	0x7369722f
 2d8:	6d2f7663          	bgeu	t5,s2,9a4 <_fstack+0x3a4>
 2dc:	6c75                	.2byte	0x6c75
 2de:	6964                	.2byte	0x6964
 2e0:	00532e33          	slt	t3,t1,t0
 2e4:	706d742f          	.4byte	0x706d742f
 2e8:	5f76722f          	.4byte	0x5f76722f
 2ec:	2f636367          	.4byte	0x2f636367
 2f0:	6972                	.2byte	0x6972
 2f2:	2d766373          	csrrsi	t1,0x2d7,12
 2f6:	2d756e67          	.4byte	0x2d756e67
 2fa:	6f74                	.2byte	0x6f74
 2fc:	68636c6f          	jal	s8,36982 <_fstack+0x36382>
 300:	6961                	.2byte	0x6961
 302:	2f6e                	.2byte	0x2f6e
 304:	7562                	.2byte	0x7562
 306:	6c69                	.2byte	0x6c69
 308:	2d64                	.2byte	0x2d64
 30a:	2d636367          	.4byte	0x2d636367
 30e:	656e                	.2byte	0x656e
 310:	62696c77          	.4byte	0x62696c77
 314:	732d                	.2byte	0x732d
 316:	6174                	.2byte	0x6174
 318:	2f326567          	.4byte	0x2f326567
 31c:	6972                	.2byte	0x6972
 31e:	33766373          	csrrsi	t1,mhpmevent23,12
 322:	2d32                	.2byte	0x2d32
 324:	6e75                	.2byte	0x6e75
 326:	776f6e6b          	.4byte	0x776f6e6b
 32a:	2d6e                	.2byte	0x2d6e
 32c:	6c65                	.2byte	0x6c65
 32e:	2f66                	.2byte	0x2f66
 330:	696c                	.2byte	0x696c
 332:	6762                	.2byte	0x6762
 334:	5f006363          	bltu	zero,a6,91a <_fstack+0x31a>
 338:	6d5f 6c75 6973      	.byte	0x5f, 0x6d, 0x75, 0x6c, 0x73, 0x69
 33e:	33 00             	Address 0x000000000000033e is out of bounds.


Disassembly of section .debug_frame:

00000000 <.debug_frame>:
   0:	000c                	.2byte	0xc
   2:	0000                	.2byte	0x0
   4:	ffff                	.2byte	0xffff
   6:	ffff                	.2byte	0xffff
   8:	7c010003          	lb	zero,1984(sp) # 12011caa <_esram_rom+0x2010862>
   c:	0d01                	.2byte	0xd01
   e:	0002                	.2byte	0x2
  10:	0020                	.2byte	0x20
  12:	0000                	.2byte	0x0
  14:	0000                	.2byte	0x0
  16:	0000                	.2byte	0x0
  18:	0148                	.2byte	0x148
  1a:	1000                	.2byte	0x1000
  1c:	001c                	.2byte	0x1c
  1e:	0000                	.2byte	0x0
  20:	0e44                	.2byte	0xe44
  22:	4410                	.2byte	0x4410
  24:	0188                	.2byte	0x188
  26:	0c44                	.2byte	0xc44
  28:	0008                	.2byte	0x8
  2a:	c848                	.2byte	0xc848
  2c:	020c                	.2byte	0x20c
  2e:	4410                	.2byte	0x4410
  30:	000e                	.2byte	0xe
  32:	0000                	.2byte	0x0
  34:	0020                	.2byte	0x20
  36:	0000                	.2byte	0x0
  38:	0000                	.2byte	0x0
  3a:	0000                	.2byte	0x0
  3c:	0164                	.2byte	0x164
  3e:	1000                	.2byte	0x1000
  40:	001c                	.2byte	0x1c
  42:	0000                	.2byte	0x0
  44:	0e44                	.2byte	0xe44
  46:	4410                	.2byte	0x4410
  48:	0188                	.2byte	0x188
  4a:	0c44                	.2byte	0xc44
  4c:	0008                	.2byte	0x8
  4e:	c848                	.2byte	0xc848
  50:	020c                	.2byte	0x20c
  52:	4410                	.2byte	0x4410
  54:	000e                	.2byte	0xe
  56:	0000                	.2byte	0x0
  58:	0020                	.2byte	0x20
  5a:	0000                	.2byte	0x0
  5c:	0000                	.2byte	0x0
  5e:	0000                	.2byte	0x0
  60:	0180                	.2byte	0x180
  62:	1000                	.2byte	0x1000
  64:	0030                	.2byte	0x30
  66:	0000                	.2byte	0x0
  68:	0e44                	.2byte	0xe44
  6a:	4420                	.2byte	0x4420
  6c:	0188                	.2byte	0x188
  6e:	0c44                	.2byte	0xc44
  70:	0008                	.2byte	0x8
  72:	c85c                	.2byte	0xc85c
  74:	020c                	.2byte	0x20c
  76:	4420                	.2byte	0x4420
  78:	000e                	.2byte	0xe
  7a:	0000                	.2byte	0x0
  7c:	0024                	.2byte	0x24
  7e:	0000                	.2byte	0x0
  80:	0000                	.2byte	0x0
  82:	0000                	.2byte	0x0
  84:	01b0                	.2byte	0x1b0
  86:	1000                	.2byte	0x1000
  88:	0038                	.2byte	0x38
  8a:	0000                	.2byte	0x0
  8c:	0e44                	.2byte	0xe44
  8e:	4820                	.2byte	0x4820
  90:	0181                	.2byte	0x181
  92:	0288                	.2byte	0x288
  94:	0c44                	.2byte	0xc44
  96:	0008                	.2byte	0x8
  98:	c15c                	.2byte	0xc15c
  9a:	c844                	.2byte	0xc844
  9c:	020c                	.2byte	0x20c
  9e:	4420                	.2byte	0x4420
  a0:	000e                	.2byte	0xe
  a2:	0000                	.2byte	0x0
  a4:	0020                	.2byte	0x20
  a6:	0000                	.2byte	0x0
  a8:	0000                	.2byte	0x0
  aa:	0000                	.2byte	0x0
  ac:	01e8                	.2byte	0x1e8
  ae:	1000                	.2byte	0x1000
  b0:	0028                	.2byte	0x28
  b2:	0000                	.2byte	0x0
  b4:	0e44                	.2byte	0xe44
  b6:	4420                	.2byte	0x4420
  b8:	0188                	.2byte	0x188
  ba:	0c44                	.2byte	0xc44
  bc:	0008                	.2byte	0x8
  be:	c854                	.2byte	0xc854
  c0:	020c                	.2byte	0x20c
  c2:	4420                	.2byte	0x4420
  c4:	000e                	.2byte	0xe
  c6:	0000                	.2byte	0x0
  c8:	0020                	.2byte	0x20
  ca:	0000                	.2byte	0x0
  cc:	0000                	.2byte	0x0
  ce:	0000                	.2byte	0x0
  d0:	0210                	.2byte	0x210
  d2:	1000                	.2byte	0x1000
  d4:	0028                	.2byte	0x28
  d6:	0000                	.2byte	0x0
  d8:	0e44                	.2byte	0xe44
  da:	4420                	.2byte	0x4420
  dc:	0188                	.2byte	0x188
  de:	0c44                	.2byte	0xc44
  e0:	0008                	.2byte	0x8
  e2:	c854                	.2byte	0xc854
  e4:	020c                	.2byte	0x20c
  e6:	4420                	.2byte	0x4420
  e8:	000e                	.2byte	0xe
  ea:	0000                	.2byte	0x0
  ec:	0028                	.2byte	0x28
  ee:	0000                	.2byte	0x0
  f0:	0000                	.2byte	0x0
  f2:	0000                	.2byte	0x0
  f4:	0238                	.2byte	0x238
  f6:	1000                	.2byte	0x1000
  f8:	006c                	.2byte	0x6c
  fa:	0000                	.2byte	0x0
  fc:	0e44                	.2byte	0xe44
  fe:	4c20                	.2byte	0x4c20
 100:	0181                	.2byte	0x181
 102:	0288                	.2byte	0x288
 104:	0389                	.2byte	0x389
 106:	0c44                	.2byte	0xc44
 108:	0008                	.2byte	0x8
 10a:	4802                	.2byte	0x4802
 10c:	44c1                	.2byte	0x44c1
 10e:	0cc8                	.2byte	0xcc8
 110:	2002                	.2byte	0x2002
 112:	c944                	.2byte	0xc944
 114:	0e44                	.2byte	0xe44
 116:	0000                	.2byte	0x0
 118:	000c                	.2byte	0xc
 11a:	0000                	.2byte	0x0
 11c:	ffff                	.2byte	0xffff
 11e:	ffff                	.2byte	0xffff
 120:	7c010003          	lb	zero,1984(sp)
 124:	0d01                	.2byte	0xd01
 126:	0002                	.2byte	0x2
 128:	0020                	.2byte	0x20
 12a:	0000                	.2byte	0x0
 12c:	0118                	.2byte	0x118
 12e:	0000                	.2byte	0x0
 130:	02a4                	.2byte	0x2a4
 132:	1000                	.2byte	0x1000
 134:	001c                	.2byte	0x1c
 136:	0000                	.2byte	0x0
 138:	0e44                	.2byte	0xe44
 13a:	4410                	.2byte	0x4410
 13c:	0188                	.2byte	0x188
 13e:	0c44                	.2byte	0xc44
 140:	0008                	.2byte	0x8
 142:	c848                	.2byte	0xc848
 144:	020c                	.2byte	0x20c
 146:	4410                	.2byte	0x4410
 148:	000e                	.2byte	0xe
 14a:	0000                	.2byte	0x0
 14c:	0020                	.2byte	0x20
 14e:	0000                	.2byte	0x0
 150:	0118                	.2byte	0x118
 152:	0000                	.2byte	0x0
 154:	02c0                	.2byte	0x2c0
 156:	1000                	.2byte	0x1000
 158:	001c                	.2byte	0x1c
 15a:	0000                	.2byte	0x0
 15c:	0e44                	.2byte	0xe44
 15e:	4410                	.2byte	0x4410
 160:	0188                	.2byte	0x188
 162:	0c44                	.2byte	0xc44
 164:	0008                	.2byte	0x8
 166:	c848                	.2byte	0xc848
 168:	020c                	.2byte	0x20c
 16a:	4410                	.2byte	0x4410
 16c:	000e                	.2byte	0xe
 16e:	0000                	.2byte	0x0
 170:	0020                	.2byte	0x20
 172:	0000                	.2byte	0x0
 174:	0118                	.2byte	0x118
 176:	0000                	.2byte	0x0
 178:	1154                	.2byte	0x1154
 17a:	1000                	.2byte	0x1000
 17c:	0048                	.2byte	0x48
 17e:	0000                	.2byte	0x0
 180:	0e44                	.2byte	0xe44
 182:	4420                	.2byte	0x4420
 184:	0188                	.2byte	0x188
 186:	0c44                	.2byte	0xc44
 188:	0008                	.2byte	0x8
 18a:	c874                	.2byte	0xc874
 18c:	020c                	.2byte	0x20c
 18e:	4420                	.2byte	0x4420
 190:	000e                	.2byte	0xe
 192:	0000                	.2byte	0x0
 194:	0024                	.2byte	0x24
 196:	0000                	.2byte	0x0
 198:	0118                	.2byte	0x118
 19a:	0000                	.2byte	0x0
 19c:	119c                	.2byte	0x119c
 19e:	1000                	.2byte	0x1000
 1a0:	0068                	.2byte	0x68
 1a2:	0000                	.2byte	0x0
 1a4:	0e44                	.2byte	0xe44
 1a6:	4820                	.2byte	0x4820
 1a8:	0181                	.2byte	0x181
 1aa:	0288                	.2byte	0x288
 1ac:	0c44                	.2byte	0xc44
 1ae:	0008                	.2byte	0x8
 1b0:	4c02                	.2byte	0x4c02
 1b2:	44c1                	.2byte	0x44c1
 1b4:	0cc8                	.2byte	0xcc8
 1b6:	2002                	.2byte	0x2002
 1b8:	0e44                	.2byte	0xe44
 1ba:	0000                	.2byte	0x0
 1bc:	0024                	.2byte	0x24
 1be:	0000                	.2byte	0x0
 1c0:	0118                	.2byte	0x118
 1c2:	0000                	.2byte	0x0
 1c4:	1204                	.2byte	0x1204
 1c6:	1000                	.2byte	0x1000
 1c8:	0054                	.2byte	0x54
 1ca:	0000                	.2byte	0x0
 1cc:	0e44                	.2byte	0xe44
 1ce:	4820                	.2byte	0x4820
 1d0:	0181                	.2byte	0x181
 1d2:	0288                	.2byte	0x288
 1d4:	0c44                	.2byte	0xc44
 1d6:	0008                	.2byte	0x8
 1d8:	c178                	.2byte	0xc178
 1da:	c844                	.2byte	0xc844
 1dc:	020c                	.2byte	0x20c
 1de:	4420                	.2byte	0x4420
 1e0:	000e                	.2byte	0xe
 1e2:	0000                	.2byte	0x0
 1e4:	0020                	.2byte	0x20
 1e6:	0000                	.2byte	0x0
 1e8:	0118                	.2byte	0x118
 1ea:	0000                	.2byte	0x0
 1ec:	1258                	.2byte	0x1258
 1ee:	1000                	.2byte	0x1000
 1f0:	0074                	.2byte	0x74
 1f2:	0000                	.2byte	0x0
 1f4:	0e44                	.2byte	0xe44
 1f6:	4420                	.2byte	0x4420
 1f8:	0188                	.2byte	0x188
 1fa:	0c44                	.2byte	0xc44
 1fc:	0008                	.2byte	0x8
 1fe:	6002                	.2byte	0x6002
 200:	0cc8                	.2byte	0xcc8
 202:	2002                	.2byte	0x2002
 204:	0e44                	.2byte	0xe44
 206:	0000                	.2byte	0x0
 208:	0020                	.2byte	0x20
 20a:	0000                	.2byte	0x0
 20c:	0118                	.2byte	0x118
 20e:	0000                	.2byte	0x0
 210:	12cc                	.2byte	0x12cc
 212:	1000                	.2byte	0x1000
 214:	0074                	.2byte	0x74
 216:	0000                	.2byte	0x0
 218:	0e44                	.2byte	0xe44
 21a:	4420                	.2byte	0x4420
 21c:	0188                	.2byte	0x188
 21e:	0c44                	.2byte	0xc44
 220:	0008                	.2byte	0x8
 222:	6002                	.2byte	0x6002
 224:	0cc8                	.2byte	0xcc8
 226:	2002                	.2byte	0x2002
 228:	0e44                	.2byte	0xe44
 22a:	0000                	.2byte	0x0
 22c:	0020                	.2byte	0x20
 22e:	0000                	.2byte	0x0
 230:	0118                	.2byte	0x118
 232:	0000                	.2byte	0x0
 234:	0024                	.2byte	0x24
 236:	3800                	.2byte	0x3800
 238:	0068                	.2byte	0x68
 23a:	0000                	.2byte	0x0
 23c:	0e44                	.2byte	0xe44
 23e:	4420                	.2byte	0x4420
 240:	0188                	.2byte	0x188
 242:	0c44                	.2byte	0xc44
 244:	0008                	.2byte	0x8
 246:	5402                	.2byte	0x5402
 248:	0cc8                	.2byte	0xcc8
 24a:	2002                	.2byte	0x2002
 24c:	0e44                	.2byte	0xe44
 24e:	0000                	.2byte	0x0
 250:	0024                	.2byte	0x24
 252:	0000                	.2byte	0x0
 254:	0118                	.2byte	0x118
 256:	0000                	.2byte	0x0
 258:	008c                	.2byte	0x8c
 25a:	3800                	.2byte	0x3800
 25c:	00f0                	.2byte	0xf0
 25e:	0000                	.2byte	0x0
 260:	0e44                	.2byte	0xe44
 262:	4830                	.2byte	0x4830
 264:	0181                	.2byte	0x181
 266:	0288                	.2byte	0x288
 268:	0c44                	.2byte	0xc44
 26a:	0008                	.2byte	0x8
 26c:	d402                	.2byte	0xd402
 26e:	44c1                	.2byte	0x44c1
 270:	0cc8                	.2byte	0xcc8
 272:	3002                	.2byte	0x3002
 274:	0e44                	.2byte	0xe44
 276:	0000                	.2byte	0x0
 278:	0024                	.2byte	0x24
 27a:	0000                	.2byte	0x0
 27c:	0118                	.2byte	0x118
 27e:	0000                	.2byte	0x0
 280:	017c                	.2byte	0x17c
 282:	3800                	.2byte	0x3800
 284:	0080                	.2byte	0x80
 286:	0000                	.2byte	0x0
 288:	0e44                	.2byte	0xe44
 28a:	4820                	.2byte	0x4820
 28c:	0181                	.2byte	0x181
 28e:	0288                	.2byte	0x288
 290:	0c44                	.2byte	0xc44
 292:	0008                	.2byte	0x8
 294:	6402                	.2byte	0x6402
 296:	44c1                	.2byte	0x44c1
 298:	0cc8                	.2byte	0xcc8
 29a:	2002                	.2byte	0x2002
 29c:	0e44                	.2byte	0xe44
 29e:	0000                	.2byte	0x0
 2a0:	0024                	.2byte	0x24
 2a2:	0000                	.2byte	0x0
 2a4:	0118                	.2byte	0x118
 2a6:	0000                	.2byte	0x0
 2a8:	01fc                	.2byte	0x1fc
 2aa:	3800                	.2byte	0x3800
 2ac:	0118                	.2byte	0x118
 2ae:	0000                	.2byte	0x0
 2b0:	0e44                	.2byte	0xe44
 2b2:	4830                	.2byte	0x4830
 2b4:	0181                	.2byte	0x181
 2b6:	0288                	.2byte	0x288
 2b8:	0c44                	.2byte	0xc44
 2ba:	0008                	.2byte	0x8
 2bc:	c100fc03          	.4byte	0xc100fc03
 2c0:	c844                	.2byte	0xc844
 2c2:	020c                	.2byte	0x20c
 2c4:	4430                	.2byte	0x4430
 2c6:	000e                	.2byte	0xe
 2c8:	0020                	.2byte	0x20
 2ca:	0000                	.2byte	0x0
 2cc:	0118                	.2byte	0x118
 2ce:	0000                	.2byte	0x0
 2d0:	0314                	.2byte	0x314
 2d2:	3800                	.2byte	0x3800
 2d4:	0184                	.2byte	0x184
 2d6:	0000                	.2byte	0x0
 2d8:	0e44                	.2byte	0xe44
 2da:	4430                	.2byte	0x4430
 2dc:	0188                	.2byte	0x188
 2de:	0c44                	.2byte	0xc44
 2e0:	0008                	.2byte	0x8
 2e2:	c8017003          	.4byte	0xc8017003
 2e6:	020c                	.2byte	0x20c
 2e8:	4430                	.2byte	0x4430
 2ea:	000e                	.2byte	0xe
 2ec:	0024                	.2byte	0x24
 2ee:	0000                	.2byte	0x0
 2f0:	0118                	.2byte	0x118
 2f2:	0000                	.2byte	0x0
 2f4:	0498                	.2byte	0x498
 2f6:	3800                	.2byte	0x3800
 2f8:	0070                	.2byte	0x70
 2fa:	0000                	.2byte	0x0
 2fc:	0e44                	.2byte	0xe44
 2fe:	4830                	.2byte	0x4830
 300:	0181                	.2byte	0x181
 302:	0288                	.2byte	0x288
 304:	0c44                	.2byte	0xc44
 306:	0008                	.2byte	0x8
 308:	5402                	.2byte	0x5402
 30a:	44c1                	.2byte	0x44c1
 30c:	0cc8                	.2byte	0xcc8
 30e:	3002                	.2byte	0x3002
 310:	0e44                	.2byte	0xe44
 312:	0000                	.2byte	0x0
 314:	0024                	.2byte	0x24
 316:	0000                	.2byte	0x0
 318:	0118                	.2byte	0x118
 31a:	0000                	.2byte	0x0
 31c:	0508                	.2byte	0x508
 31e:	3800                	.2byte	0x3800
 320:	0034                	.2byte	0x34
 322:	0000                	.2byte	0x0
 324:	0e44                	.2byte	0xe44
 326:	4810                	.2byte	0x4810
 328:	0181                	.2byte	0x181
 32a:	0288                	.2byte	0x288
 32c:	0c44                	.2byte	0xc44
 32e:	0008                	.2byte	0x8
 330:	c158                	.2byte	0xc158
 332:	c844                	.2byte	0xc844
 334:	020c                	.2byte	0x20c
 336:	4410                	.2byte	0x4410
 338:	000e                	.2byte	0xe
 33a:	0000                	.2byte	0x0
 33c:	000c                	.2byte	0xc
 33e:	0000                	.2byte	0x0
 340:	ffff                	.2byte	0xffff
 342:	ffff                	.2byte	0xffff
 344:	7c010003          	lb	zero,1984(sp)
 348:	0d01                	.2byte	0xd01
 34a:	0002                	.2byte	0x2
 34c:	0020                	.2byte	0x20
 34e:	0000                	.2byte	0x0
 350:	033c                	.2byte	0x33c
 352:	0000                	.2byte	0x0
 354:	02dc                	.2byte	0x2dc
 356:	1000                	.2byte	0x1000
 358:	001c                	.2byte	0x1c
 35a:	0000                	.2byte	0x0
 35c:	0e44                	.2byte	0xe44
 35e:	4410                	.2byte	0x4410
 360:	0188                	.2byte	0x188
 362:	0c44                	.2byte	0xc44
 364:	0008                	.2byte	0x8
 366:	c848                	.2byte	0xc848
 368:	020c                	.2byte	0x20c
 36a:	4410                	.2byte	0x4410
 36c:	000e                	.2byte	0xe
 36e:	0000                	.2byte	0x0
 370:	0020                	.2byte	0x20
 372:	0000                	.2byte	0x0
 374:	033c                	.2byte	0x33c
 376:	0000                	.2byte	0x0
 378:	02f8                	.2byte	0x2f8
 37a:	1000                	.2byte	0x1000
 37c:	001c                	.2byte	0x1c
 37e:	0000                	.2byte	0x0
 380:	0e44                	.2byte	0xe44
 382:	4410                	.2byte	0x4410
 384:	0188                	.2byte	0x188
 386:	0c44                	.2byte	0xc44
 388:	0008                	.2byte	0x8
 38a:	c848                	.2byte	0xc848
 38c:	020c                	.2byte	0x20c
 38e:	4410                	.2byte	0x4410
 390:	000e                	.2byte	0xe
 392:	0000                	.2byte	0x0
 394:	0020                	.2byte	0x20
 396:	0000                	.2byte	0x0
 398:	033c                	.2byte	0x33c
 39a:	0000                	.2byte	0x0
 39c:	0314                	.2byte	0x314
 39e:	1000                	.2byte	0x1000
 3a0:	0030                	.2byte	0x30
 3a2:	0000                	.2byte	0x0
 3a4:	0e44                	.2byte	0xe44
 3a6:	4420                	.2byte	0x4420
 3a8:	0188                	.2byte	0x188
 3aa:	0c44                	.2byte	0xc44
 3ac:	0008                	.2byte	0x8
 3ae:	c85c                	.2byte	0xc85c
 3b0:	020c                	.2byte	0x20c
 3b2:	4420                	.2byte	0x4420
 3b4:	000e                	.2byte	0xe
 3b6:	0000                	.2byte	0x0
 3b8:	0024                	.2byte	0x24
 3ba:	0000                	.2byte	0x0
 3bc:	033c                	.2byte	0x33c
 3be:	0000                	.2byte	0x0
 3c0:	0344                	.2byte	0x344
 3c2:	1000                	.2byte	0x1000
 3c4:	0038                	.2byte	0x38
 3c6:	0000                	.2byte	0x0
 3c8:	0e44                	.2byte	0xe44
 3ca:	4820                	.2byte	0x4820
 3cc:	0181                	.2byte	0x181
 3ce:	0288                	.2byte	0x288
 3d0:	0c44                	.2byte	0xc44
 3d2:	0008                	.2byte	0x8
 3d4:	c15c                	.2byte	0xc15c
 3d6:	c844                	.2byte	0xc844
 3d8:	020c                	.2byte	0x20c
 3da:	4420                	.2byte	0x4420
 3dc:	000e                	.2byte	0xe
 3de:	0000                	.2byte	0x0
 3e0:	0024                	.2byte	0x24
 3e2:	0000                	.2byte	0x0
 3e4:	033c                	.2byte	0x33c
 3e6:	0000                	.2byte	0x0
 3e8:	037c                	.2byte	0x37c
 3ea:	1000                	.2byte	0x1000
 3ec:	0068                	.2byte	0x68
 3ee:	0000                	.2byte	0x0
 3f0:	0e44                	.2byte	0xe44
 3f2:	4820                	.2byte	0x4820
 3f4:	0181                	.2byte	0x181
 3f6:	0288                	.2byte	0x288
 3f8:	0c44                	.2byte	0xc44
 3fa:	0008                	.2byte	0x8
 3fc:	4c02                	.2byte	0x4c02
 3fe:	44c1                	.2byte	0x44c1
 400:	0cc8                	.2byte	0xcc8
 402:	2002                	.2byte	0x2002
 404:	0e44                	.2byte	0xe44
 406:	0000                	.2byte	0x0
 408:	0024                	.2byte	0x24
 40a:	0000                	.2byte	0x0
 40c:	033c                	.2byte	0x33c
 40e:	0000                	.2byte	0x0
 410:	03e4                	.2byte	0x3e4
 412:	1000                	.2byte	0x1000
 414:	0054                	.2byte	0x54
 416:	0000                	.2byte	0x0
 418:	0e44                	.2byte	0xe44
 41a:	4820                	.2byte	0x4820
 41c:	0181                	.2byte	0x181
 41e:	0288                	.2byte	0x288
 420:	0c44                	.2byte	0xc44
 422:	0008                	.2byte	0x8
 424:	c178                	.2byte	0xc178
 426:	c844                	.2byte	0xc844
 428:	020c                	.2byte	0x20c
 42a:	4420                	.2byte	0x4420
 42c:	000e                	.2byte	0xe
 42e:	0000                	.2byte	0x0
 430:	0020                	.2byte	0x20
 432:	0000                	.2byte	0x0
 434:	033c                	.2byte	0x33c
 436:	0000                	.2byte	0x0
 438:	0438                	.2byte	0x438
 43a:	1000                	.2byte	0x1000
 43c:	0028                	.2byte	0x28
 43e:	0000                	.2byte	0x0
 440:	0e44                	.2byte	0xe44
 442:	4420                	.2byte	0x4420
 444:	0188                	.2byte	0x188
 446:	0c44                	.2byte	0xc44
 448:	0008                	.2byte	0x8
 44a:	c854                	.2byte	0xc854
 44c:	020c                	.2byte	0x20c
 44e:	4420                	.2byte	0x4420
 450:	000e                	.2byte	0xe
 452:	0000                	.2byte	0x0
 454:	0020                	.2byte	0x20
 456:	0000                	.2byte	0x0
 458:	033c                	.2byte	0x33c
 45a:	0000                	.2byte	0x0
 45c:	0460                	.2byte	0x460
 45e:	1000                	.2byte	0x1000
 460:	0028                	.2byte	0x28
 462:	0000                	.2byte	0x0
 464:	0e44                	.2byte	0xe44
 466:	4420                	.2byte	0x4420
 468:	0188                	.2byte	0x188
 46a:	0c44                	.2byte	0xc44
 46c:	0008                	.2byte	0x8
 46e:	c854                	.2byte	0xc854
 470:	020c                	.2byte	0x20c
 472:	4420                	.2byte	0x4420
 474:	000e                	.2byte	0xe
 476:	0000                	.2byte	0x0
 478:	0028                	.2byte	0x28
 47a:	0000                	.2byte	0x0
 47c:	033c                	.2byte	0x33c
 47e:	0000                	.2byte	0x0
 480:	0488                	.2byte	0x488
 482:	1000                	.2byte	0x1000
 484:	0ccc                	.2byte	0xccc
 486:	0000                	.2byte	0x0
 488:	0e44                	.2byte	0xe44
 48a:	0180                	.2byte	0x180
 48c:	8148                	.2byte	0x8148
 48e:	8801                	.2byte	0x8801
 490:	4402                	.2byte	0x4402
 492:	080c                	.2byte	0x80c
 494:	0300                	.2byte	0x300
 496:	0cb0                	.2byte	0xcb0
 498:	44c1                	.2byte	0x44c1
 49a:	0cc8                	.2byte	0xcc8
 49c:	8002                	.2byte	0x8002
 49e:	4401                	.2byte	0x4401
 4a0:	000e                	.2byte	0xe
	...

Disassembly of section .debug_rnglists:

00000000 <.debug_rnglists>:
   0:	007e                	.2byte	0x7e
   2:	0000                	.2byte	0x0
   4:	0005                	.2byte	0x5
   6:	0004                	.2byte	0x4
   8:	0000                	.2byte	0x0
   a:	0000                	.2byte	0x0
   c:	a406                	.2byte	0xa406
   e:	0002                	.2byte	0x2
  10:	dc10                	.2byte	0xdc10
  12:	0002                	.2byte	0x2
  14:	0610                	.2byte	0x610
  16:	1154                	.2byte	0x1154
  18:	1000                	.2byte	0x1000
  1a:	119c                	.2byte	0x119c
  1c:	1000                	.2byte	0x1000
  1e:	9c06                	.2byte	0x9c06
  20:	0011                	.2byte	0x11
  22:	0410                	.2byte	0x410
  24:	0012                	.2byte	0x12
  26:	0610                	.2byte	0x610
  28:	1204                	.2byte	0x1204
  2a:	1000                	.2byte	0x1000
  2c:	1258                	.2byte	0x1258
  2e:	1000                	.2byte	0x1000
  30:	5806                	.2byte	0x5806
  32:	0012                	.2byte	0x12
  34:	cc10                	.2byte	0xcc10
  36:	0012                	.2byte	0x12
  38:	0610                	.2byte	0x610
  3a:	12cc                	.2byte	0x12cc
  3c:	1000                	.2byte	0x1000
  3e:	1340                	.2byte	0x1340
  40:	1000                	.2byte	0x1000
  42:	2406                	.2byte	0x2406
  44:	0000                	.2byte	0x0
  46:	8c38                	.2byte	0x8c38
  48:	0000                	.2byte	0x0
  4a:	0638                	.2byte	0x638
  4c:	008c                	.2byte	0x8c
  4e:	3800                	.2byte	0x3800
  50:	017c                	.2byte	0x17c
  52:	3800                	.2byte	0x3800
  54:	7c06                	.2byte	0x7c06
  56:	0001                	.2byte	0x1
  58:	fc38                	.2byte	0xfc38
  5a:	0001                	.2byte	0x1
  5c:	0638                	.2byte	0x638
  5e:	01fc                	.2byte	0x1fc
  60:	3800                	.2byte	0x3800
  62:	0314                	.2byte	0x314
  64:	3800                	.2byte	0x3800
  66:	1406                	.2byte	0x1406
  68:	98380003          	lb	zero,-1661(a6)
  6c:	0004                	.2byte	0x4
  6e:	0638                	.2byte	0x638
  70:	0498                	.2byte	0x498
  72:	3800                	.2byte	0x3800
  74:	0508                	.2byte	0x508
  76:	3800                	.2byte	0x3800
  78:	0806                	.2byte	0x806
  7a:	0005                	.2byte	0x5
  7c:	3c38                	.2byte	0x3c38
  7e:	0005                	.2byte	0x5
  80:	0038                	.2byte	0x38
